---
triple:          'x86_64-apple-darwin'
binary-path:     adaptor.so
relocations:
  - { offsetInCU: 0x23C2, offset: 0x23C2, size: 0x8, addend: 0x0, symName: __ZN8pybind116detail23all_type_info_get_cacheEP11_typeobject, symObjAddr: 0x4DA0, symBinAddr: 0x5F50, symSize: 0x120 }
  - { offsetInCU: 0x3393, offset: 0x3393, size: 0x8, addend: 0x0, symName: __ZN8pybind116detail12error_stringEv, symObjAddr: 0x2390, symBinAddr: 0x3540, symSize: 0x8C0 }
  - { offsetInCU: 0x5DE4, offset: 0x5DE4, size: 0x8, addend: 0x0, symName: __ZN8pybind116detail9load_typeINSt3__112basic_stringIcNS2_11char_traitsIcEENS2_9allocatorIcEEEEEENS0_11type_casterINS0_14intrinsic_typeIT_E4typeEvEERKNS_6handleE, symObjAddr: 0x2FC0, symBinAddr: 0x4170, symSize: 0xB0 }
  - { offsetInCU: 0x614A, offset: 0x614A, size: 0x8, addend: 0x0, symName: __ZN8pybind116detail13get_internalsEv, symObjAddr: 0x3550, symBinAddr: 0x4700, symSize: 0x4B0 }
  - { offsetInCU: 0x7AAC, offset: 0x7AAC, size: 0x8, addend: 0x0, symName: __ZN8pybind116detail25make_static_property_typeEv, symObjAddr: 0x3B50, symBinAddr: 0x4D00, symSize: 0x1A0 }
  - { offsetInCU: 0x7E5B, offset: 0x7E5B, size: 0x8, addend: 0x0, symName: __ZN8pybind116detail22make_default_metaclassEv, symObjAddr: 0x3CF0, symBinAddr: 0x4EA0, symSize: 0x1A0 }
  - { offsetInCU: 0x8206, offset: 0x8206, size: 0x8, addend: 0x0, symName: __ZN8pybind116detail21make_object_base_typeEP11_typeobject, symObjAddr: 0x3E90, symBinAddr: 0x5040, symSize: 0x260 }
  - { offsetInCU: 0x8B12, offset: 0x8B12, size: 0x8, addend: 0x0, symName: __ZN8pybind116detail22all_type_info_populateEP11_typeobjectRNSt3__16vectorIPNS0_9type_infoENS3_9allocatorIS6_EEEE, symObjAddr: 0x4EC0, symBinAddr: 0x6070, symSize: 0x5F0 }
  - { offsetInCU: 0xA67C, offset: 0xA67C, size: 0x8, addend: 0x0, symName: __ZN8pybind116detail14clear_instanceEP7_object, symObjAddr: 0xAD00, symBinAddr: 0xBEB0, symSize: 0x2E0 }
  - { offsetInCU: 0xAF08, offset: 0xAF08, size: 0x8, addend: 0x0, symName: __ZN8pybind116detail1_EPKc, symObjAddr: 0x5D30, symBinAddr: 0x6EE0, symSize: 0x60 }
  - { offsetInCU: 0xAF64, offset: 0xAF64, size: 0x8, addend: 0x0, symName: __ZN8pybind116detail1_INS_6handleEEENS0_5descrEv, symObjAddr: 0x73B0, symBinAddr: 0x8560, symSize: 0x60 }
  - { offsetInCU: 0xAFB3, offset: 0xAFB3, size: 0x8, addend: 0x0, symName: __ZN8pybind116detail10type_descrEONS0_5descrE, symObjAddr: 0x7350, symBinAddr: 0x8500, symSize: 0x60 }
  - { offsetInCU: 0xB02E, offset: 0xB02E, size: 0x8, addend: 0x0, symName: __ZN8pybind116detail6concatEONS0_5descrE, symObjAddr: 0x7340, symBinAddr: 0x84F0, symSize: 0x10 }
  - { offsetInCU: 0xB071, offset: 0xB071, size: 0x8, addend: 0x0, symName: __ZN8pybind116detail13get_type_infoERKSt9type_infob, symObjAddr: 0x74D0, symBinAddr: 0x8680, symSize: 0x120 }
  - { offsetInCU: 0xB5EA, offset: 0xB5EA, size: 0x8, addend: 0x0, symName: __ZN8pybind116detail13clean_type_idERNSt3__112basic_stringIcNS1_11char_traitsIcEENS1_9allocatorIcEEEE, symObjAddr: 0x75F0, symBinAddr: 0x87A0, symSize: 0x1E0 }
  - { offsetInCU: 0xBD4A, offset: 0xBD4A, size: 0x8, addend: 0x0, symName: __ZN8pybind116detail13get_type_infoEP11_typeobject, symObjAddr: 0x9FD0, symBinAddr: 0xB180, symSize: 0x60 }
  - { offsetInCU: 0xBECD, offset: 0xBECD, size: 0x8, addend: 0x0, symName: __ZN8pybind116detail21traverse_offset_basesEPvPKNS0_9type_infoEPNS0_8instanceEPFbS1_S6_E, symObjAddr: 0xB1B0, symBinAddr: 0xC360, symSize: 0x150 }
  - { offsetInCU: 0xC349, offset: 0xC349, size: 0x8, addend: 0x0, symName: __ZN8pybind116detail14clear_patientsEP7_object, symObjAddr: 0xB000, symBinAddr: 0xC1B0, symSize: 0x100 }
  - { offsetInCU: 0xCA2D, offset: 0xCA2D, size: 0x8, addend: 0x0, symName: __ZN8pybind116detail24deregister_instance_implEPvPNS0_8instanceE, symObjAddr: 0xB100, symBinAddr: 0xC2B0, symSize: 0xB0 }
  - { offsetInCU: 0xD217, offset: 0xD217, size: 0x8, addend: 0x0, symName: __ZN8pybind116detail1_ILb0EEENSt3__19enable_ifIXntT_ENS0_5descrEE4typeEPKcS8_, symObjAddr: 0xD640, symBinAddr: 0xE7F0, symSize: 0x10 }
  - { offsetInCU: 0xD26E, offset: 0xD26E, size: 0x8, addend: 0x0, symName: __ZN8pybind116detail6concatIJNS0_5descrEEEES2_OS2_DpOT_, symObjAddr: 0xD470, symBinAddr: 0xE620, symSize: 0x60 }
  - { offsetInCU: 0xD89F, offset: 0xD89F, size: 0x8, addend: 0x0, symName: __ZN8pybind116detail1_ILm32EEENS0_5descrEv, symObjAddr: 0xD5A0, symBinAddr: 0xE750, symSize: 0xA0 }
  - { offsetInCU: 0xDBCA, offset: 0xDBCA, size: 0x8, addend: 0x0, symName: __ZN8pybind116detail1_ILb1EEENSt3__19enable_ifIXT_ENS0_5descrEE4typeES4_S4_, symObjAddr: 0xD590, symBinAddr: 0xE740, symSize: 0x10 }
  - { offsetInCU: 0xFA15, offset: 0xFA15, size: 0x8, addend: 0x0, symName: __ZN8pybind1113pybind11_failEPKc, symObjAddr: 0x3350, symBinAddr: 0x4500, symSize: 0x50 }
  - { offsetInCU: 0xFBB6, offset: 0xFBB6, size: 0x8, addend: 0x0, symName: __ZN8pybind114castIbEENSt3__19enable_ifIXsr6detail20move_if_unreferencedIT_EE5valueES3_E4typeEONS_6objectE, symObjAddr: 0x44A0, symBinAddr: 0x5650, symSize: 0xC0 }
  - { offsetInCU: 0xFD21, offset: 0xFD21, size: 0x8, addend: 0x0, symName: __ZN8pybind1113pybind11_failERKNSt3__112basic_stringIcNS0_11char_traitsIcEENS0_9allocatorIcEEEE, symObjAddr: 0x4C30, symBinAddr: 0x5DE0, symSize: 0x50 }
  - { offsetInCU: 0xFD4C, offset: 0xFD4C, size: 0x8, addend: 0x0, symName: __ZN8pybind1110make_tupleILNS_19return_value_policyE1EJRPKcEEENS_5tupleEDpOT0_, symObjAddr: 0x41D0, symBinAddr: 0x5380, symSize: 0xF0 }
  - { offsetInCU: 0x101B0, offset: 0x101B0, size: 0x8, addend: 0x0, symName: __ZN8pybind114moveIbEENSt3__19enable_ifIXntsr6detail10move_neverIT_EE5valueES3_E4typeEONS_6objectE, symObjAddr: 0x4560, symBinAddr: 0x5710, symSize: 0xD0 }
  - { offsetInCU: 0x1059B, offset: 0x1059B, size: 0x8, addend: 0x0, symName: __ZN8pybind1110make_tupleILNS_19return_value_policyE1EJRNS_6handleES3_EEENS_5tupleEDpOT0_, symObjAddr: 0xA870, symBinAddr: 0xBA20, symSize: 0x160 }
  - { offsetInCU: 0x43E60, offset: 0x43E60, size: 0x8, addend: 0x0, symName: '__ZNSt3__111__introsortINS_17_ClassicAlgPolicyERZN5lanms12standard_nmsERNS_6vectorINS2_7PolygonENS_9allocatorIS4_EEEEfE3$_0PmLb0EEEvT1_SC_T0_NS_15iterator_traitsISC_E15difference_typeEb', symObjAddr: 0xD660, symBinAddr: 0xE810, symSize: 0xCA0 }
  - { offsetInCU: 0x459C4, offset: 0x459C4, size: 0x8, addend: 0x0, symName: '__ZNSt3__127__insertion_sort_incompleteB8ue170006INS_17_ClassicAlgPolicyERZN5lanms12standard_nmsERNS_6vectorINS2_7PolygonENS_9allocatorIS4_EEEEfE3$_0PmEEbT1_SC_T0_', symObjAddr: 0xE300, symBinAddr: 0xF4B0, symSize: 0x390 }
  - { offsetInCU: 0x4EF81, offset: 0x4EF81, size: 0x8, addend: 0x0, symName: __ZNSt3__120__throw_length_errorB8ue170006EPKc, symObjAddr: 0x1E50, symBinAddr: 0x3000, symSize: 0x50 }
  - { offsetInCU: 0x536C6, offset: 0x536C6, size: 0x8, addend: 0x0, symName: '__ZNSt3__17__sort4B8ue170006INS_17_ClassicAlgPolicyERZN5lanms12standard_nmsERNS_6vectorINS2_7PolygonENS_9allocatorIS4_EEEEfE3$_0PmEEvT1_SC_SC_SC_T0_', symObjAddr: 0xE690, symBinAddr: 0xF840, symSize: 0x130 }
  - { offsetInCU: 0x54AE2, offset: 0x54AE2, size: 0x8, addend: 0x0, symName: __ZSt28__throw_bad_array_new_lengthB8ue170006v, symObjAddr: 0x1ED0, symBinAddr: 0x3080, symSize: 0x40 }
  - { offsetInCU: 0x5A935, offset: 0x5A935, size: 0x8, addend: 0x0, symName: __ZN5lanms19merge_quadrangle_n9EPKfmf, symObjAddr: 0xB90, symBinAddr: 0x1D40, symSize: 0x410 }
  - { offsetInCU: 0x5BACD, offset: 0x5BACD, size: 0x8, addend: 0x0, symName: __ZN5lanms10paths_areaERKNSt3__16vectorINS1_IN10ClipperLib8IntPointENS0_9allocatorIS3_EEEENS4_IS6_EEEE, symObjAddr: 0x0, symBinAddr: 0x11B0, symSize: 0x60 }
  - { offsetInCU: 0x5BBFB, offset: 0x5BBFB, size: 0x8, addend: 0x0, symName: __ZN5lanms8poly_iouERKNS_7PolygonES2_, symObjAddr: 0x60, symBinAddr: 0x1210, symSize: 0x320 }
  - { offsetInCU: 0x5CA79, offset: 0x5CA79, size: 0x8, addend: 0x0, symName: __ZN5lanms12should_mergeERKNS_7PolygonES2_f, symObjAddr: 0x4C0, symBinAddr: 0x1670, symSize: 0x20 }
  - { offsetInCU: 0x5CAC4, offset: 0x5CAC4, size: 0x8, addend: 0x0, symName: __ZN5lanms12standard_nmsERNSt3__16vectorINS_7PolygonENS0_9allocatorIS2_EEEEf, symObjAddr: 0x4E0, symBinAddr: 0x1690, symSize: 0x630 }
  - { offsetInCU: 0x5EEDD, offset: 0x5EEDD, size: 0x8, addend: 0x0, symName: __ZN8pybind1112cpp_function10initializeIZNS_6detail23all_type_info_get_cacheEP11_typeobjectEUlNS_6handleEE_vJS5_EJEEEvOT_PFT0_DpT1_EDpRKT2_, symObjAddr: 0x5BF0, symBinAddr: 0x6DA0, symSize: 0x100 }
  - { offsetInCU: 0x5FAC7, offset: 0x5FAC7, size: 0x8, addend: 0x0, symName: __ZN8pybind1112cpp_function10initializeIRPFNSt3__16vectorINS3_IfNS2_9allocatorIfEEEENS4_IS6_EEEENS_7array_tIfLi17EEEfES8_JSA_fEJNS_4nameENS_5scopeENS_7siblingEA18_cEEEvOT_PFT0_DpT1_EDpRKT2_, symObjAddr: 0xBFD0, symBinAddr: 0xD180, symSize: 0x170 }
  - { offsetInCU: 0x63486, offset: 0x63486, size: 0x8, addend: 0x0, symName: __ZNSt3__16vectorINS0_IN10ClipperLib8IntPointENS_9allocatorIS2_EEEENS3_IS5_EEED1B8ue170006Ev, symObjAddr: 0x380, symBinAddr: 0x1530, symSize: 0x80 }
  - { offsetInCU: 0x63759, offset: 0x63759, size: 0x8, addend: 0x0, symName: __ZN10ClipperLib7ClipperD1Ev, symObjAddr: 0x400, symBinAddr: 0x15B0, symSize: 0xC0 }
  - { offsetInCU: 0x64824, offset: 0x64824, size: 0x8, addend: 0x0, symName: __ZNSt3__16vectorImNS_9allocatorImEEE8__appendEm, symObjAddr: 0xE7C0, symBinAddr: 0xF970, symSize: 0x160 }
  - { offsetInCU: 0x64E1C, offset: 0x64E1C, size: 0x8, addend: 0x0, symName: __ZNSt3__16vectorIN5lanms7PolygonENS_9allocatorIS2_EEE24__emplace_back_slow_pathIJRS2_EEEvDpOT_, symObjAddr: 0xE920, symBinAddr: 0xFAD0, symSize: 0x250 }
  - { offsetInCU: 0x65AA6, offset: 0x65AA6, size: 0x8, addend: 0x0, symName: __ZNKSt3__16vectorImNS_9allocatorImEEE20__throw_length_errorB8ue170006Ev, symObjAddr: 0xD650, symBinAddr: 0xE800, symSize: 0x10 }
  - { offsetInCU: 0x65ACF, offset: 0x65ACF, size: 0x8, addend: 0x0, symName: '__ZNSt3__111__introsortINS_17_ClassicAlgPolicyERZN5lanms12standard_nmsERNS_6vectorINS2_7PolygonENS_9allocatorIS4_EEEEfE3$_0PmLb0EEEvT1_SC_T0_NS_15iterator_traitsISC_E15difference_typeEb', symObjAddr: 0xD660, symBinAddr: 0xE810, symSize: 0xCA0 }
  - { offsetInCU: 0x65ADA, offset: 0x65ADA, size: 0x8, addend: 0x0, symName: __ZNKSt3__16vectorIN10ClipperLib8IntPointENS_9allocatorIS2_EEE20__throw_length_errorB8ue170006Ev, symObjAddr: 0x1E40, symBinAddr: 0x2FF0, symSize: 0x10 }
  - { offsetInCU: 0x65B03, offset: 0x65B03, size: 0x8, addend: 0x0, symName: __ZNSt3__120__throw_length_errorB8ue170006EPKc, symObjAddr: 0x1E50, symBinAddr: 0x3000, symSize: 0x50 }
  - { offsetInCU: 0x65B0E, offset: 0x65B0E, size: 0x8, addend: 0x0, symName: __ZNSt3__16vectorIN5lanms7PolygonENS_9allocatorIS2_EEED1B8ue170006Ev, symObjAddr: 0xB10, symBinAddr: 0x1CC0, symSize: 0x80 }
  - { offsetInCU: 0x661E6, offset: 0x661E6, size: 0x8, addend: 0x0, symName: __ZN5lanms10PolyMerger3addERKNS_7PolygonE, symObjAddr: 0xFA0, symBinAddr: 0x2150, symSize: 0x240 }
  - { offsetInCU: 0x66931, offset: 0x66931, size: 0x8, addend: 0x0, symName: __ZNK5lanms10PolyMerger3getEv, symObjAddr: 0x11E0, symBinAddr: 0x2390, symSize: 0x120 }
  - { offsetInCU: 0x66D3D, offset: 0x66D3D, size: 0x8, addend: 0x0, symName: __ZN5lanms10PolyMerger14normalize_polyERKNS_7PolygonES3_, symObjAddr: 0x19C0, symBinAddr: 0x2B70, symSize: 0x320 }
  - { offsetInCU: 0x67329, offset: 0x67329, size: 0x8, addend: 0x0, symName: __ZNSt3__16vectorIN10ClipperLib8IntPointENS_9allocatorIS2_EEE18__assign_with_sizeB8ue170006IPS2_S7_EEvT_T0_l, symObjAddr: 0x1F10, symBinAddr: 0x30C0, symSize: 0x150 }
  - { offsetInCU: 0x67D65, offset: 0x67D65, size: 0x8, addend: 0x0, symName: __ZNSt3__16vectorIN10ClipperLib8IntPointENS_9allocatorIS2_EEE8__appendEm, symObjAddr: 0x1CE0, symBinAddr: 0x2E90, symSize: 0x160 }
  - { offsetInCU: 0x6889B, offset: 0x6889B, size: 0x8, addend: 0x0, symName: __ZN13lanms_adaptor12polys2floatsERKNSt3__16vectorIN5lanms7PolygonENS0_9allocatorIS3_EEEE, symObjAddr: 0x1300, symBinAddr: 0x24B0, symSize: 0x1E0 }
  - { offsetInCU: 0x6904B, offset: 0x6904B, size: 0x8, addend: 0x0, symName: __ZN13lanms_adaptor19merge_quadrangle_n9EN8pybind117array_tIfLi17EEEf, symObjAddr: 0x1560, symBinAddr: 0x2710, symSize: 0x190 }
  - { offsetInCU: 0x6981B, offset: 0x6981B, size: 0x8, addend: 0x0, symName: __ZNSt3__16vectorINS0_IfNS_9allocatorIfEEEENS1_IS3_EEE24__emplace_back_slow_pathIJS3_EEEvDpOT_, symObjAddr: 0xEBE0, symBinAddr: 0xFD90, symSize: 0x190 }
  - { offsetInCU: 0x69ED2, offset: 0x69ED2, size: 0x8, addend: 0x0, symName: __ZNSt3__16vectorINS0_IfNS_9allocatorIfEEEENS1_IS3_EEED1B8ue170006Ev, symObjAddr: 0x14E0, symBinAddr: 0x2690, symSize: 0x80 }
  - { offsetInCU: 0x6A4D0, offset: 0x6A4D0, size: 0x8, addend: 0x0, symName: __ZN8pybind116buffer7requestEb, symObjAddr: 0x16F0, symBinAddr: 0x28A0, symSize: 0xB0 }
  - { offsetInCU: 0x6A575, offset: 0x6A575, size: 0x8, addend: 0x0, symName: __ZN8pybind1111buffer_infoD2Ev, symObjAddr: 0xBC90, symBinAddr: 0xCE40, symSize: 0x80 }
  - { offsetInCU: 0x6A940, offset: 0x6A940, size: 0x8, addend: 0x0, symName: __ZN8pybind1111buffer_infoC1EP10bufferinfob, symObjAddr: 0x2080, symBinAddr: 0x3230, symSize: 0x240 }
  - { offsetInCU: 0x6BA40, offset: 0x6BA40, size: 0x8, addend: 0x0, symName: __ZN8pybind1117error_already_setC1Ev, symObjAddr: 0x2060, symBinAddr: 0x3210, symSize: 0x10 }
  - { offsetInCU: 0x6BCD0, offset: 0x6BCD0, size: 0x8, addend: 0x0, symName: _PyInit_adaptor, symObjAddr: 0x17A0, symBinAddr: 0x2950, symSize: 0x210 }
  - { offsetInCU: 0x6BF55, offset: 0x6BF55, size: 0x8, addend: 0x0, symName: __ZN8pybind116module3defIPFNSt3__16vectorINS3_IfNS2_9allocatorIfEEEENS4_IS6_EEEENS_7array_tIfLi17EEEfEJA18_cEEERS0_PKcOT_DpRKT0_, symObjAddr: 0xBD10, symBinAddr: 0xCEC0, symSize: 0x160 }
  - { offsetInCU: 0x6C6A8, offset: 0x6C6A8, size: 0x8, addend: 0x0, symName: __ZN8pybind116moduleD1Ev, symObjAddr: 0xBE70, symBinAddr: 0xD020, symSize: 0x30 }
  - { offsetInCU: 0x6CB90, offset: 0x6CB90, size: 0x8, addend: 0x0, symName: __ZNSt12length_errorC1B8ue170006EPKc, symObjAddr: 0x1EA0, symBinAddr: 0x3050, symSize: 0x30 }
  - { offsetInCU: 0x6CC1C, offset: 0x6CC1C, size: 0x8, addend: 0x0, symName: __ZN8pybind1117error_already_setC2Ev, symObjAddr: 0x22C0, symBinAddr: 0x3470, symSize: 0xD0 }
  - { offsetInCU: 0x6CF5E, offset: 0x6CF5E, size: 0x8, addend: 0x0, symName: __ZN8pybind1117error_already_setD1Ev, symObjAddr: 0x2070, symBinAddr: 0x3220, symSize: 0x10 }
  - { offsetInCU: 0x6CF94, offset: 0x6CF94, size: 0x8, addend: 0x0, symName: __ZN8pybind1117error_already_setD2Ev, symObjAddr: 0x33A0, symBinAddr: 0x4550, symSize: 0x100 }
  - { offsetInCU: 0x6D8DD, offset: 0x6D8DD, size: 0x8, addend: 0x0, symName: __ZN8pybind1111buffer_infoC2EPvlRKNSt3__112basic_stringIcNS2_11char_traitsIcEENS2_9allocatorIcEEEElNS_6detail13any_containerIlEESD_, symObjAddr: 0xBA60, symBinAddr: 0xCC10, symSize: 0x230 }
  - { offsetInCU: 0x6DF63, offset: 0x6DF63, size: 0x8, addend: 0x0, symName: __ZNKSt3__112basic_stringIcNS_11char_traitsIcEENS_9allocatorIcEEE20__throw_length_errorB8ue170006Ev, symObjAddr: 0x2F20, symBinAddr: 0x40D0, symSize: 0x10 }
  - { offsetInCU: 0x6DF8C, offset: 0x6DF8C, size: 0x8, addend: 0x0, symName: __ZNK8pybind116detail8accessorINS0_17accessor_policies8str_attrEE9get_cacheEv, symObjAddr: 0x2F30, symBinAddr: 0x40E0, symSize: 0x90 }
  - { offsetInCU: 0x6DF97, offset: 0x6DF97, size: 0x8, addend: 0x0, symName: __ZNKSt3__16vectorIlNS_9allocatorIlEEE20__throw_length_errorB8ue170006Ev, symObjAddr: 0xBA50, symBinAddr: 0xCC00, symSize: 0x10 }
  - { offsetInCU: 0x6DFC0, offset: 0x6DFC0, size: 0x8, addend: 0x0, symName: __ZN8pybind1111buffer_infoC2EPvlRKNSt3__112basic_stringIcNS2_11char_traitsIcEENS2_9allocatorIcEEEElNS_6detail13any_containerIlEESD_, symObjAddr: 0xBA60, symBinAddr: 0xCC10, symSize: 0x230 }
  - { offsetInCU: 0x6E030, offset: 0x6E030, size: 0x8, addend: 0x0, symName: __ZN8pybind116objectD1Ev, symObjAddr: 0x2C50, symBinAddr: 0x3E00, symSize: 0x30 }
  - { offsetInCU: 0x6E4DF, offset: 0x6E4DF, size: 0x8, addend: 0x0, symName: __ZNK8pybind116detail8accessorINS0_17accessor_policies8str_attrEE9get_cacheEv, symObjAddr: 0x2F30, symBinAddr: 0x40E0, symSize: 0x90 }
  - { offsetInCU: 0x6E60D, offset: 0x6E60D, size: 0x8, addend: 0x0, symName: __ZNK8pybind113strcvNSt3__112basic_stringIcNS1_11char_traitsIcEENS1_9allocatorIcEEEEEv, symObjAddr: 0x2D60, symBinAddr: 0x3F10, symSize: 0x160 }
  - { offsetInCU: 0x6EC39, offset: 0x6EC39, size: 0x8, addend: 0x0, symName: __ZN8pybind113strD1Ev, symObjAddr: 0x2EC0, symBinAddr: 0x4070, symSize: 0x30 }
  - { offsetInCU: 0x6ECDE, offset: 0x6ECDE, size: 0x8, addend: 0x0, symName: __ZN8pybind116detail8accessorINS0_17accessor_policies8str_attrEED1Ev, symObjAddr: 0x2D30, symBinAddr: 0x3EE0, symSize: 0x30 }
  - { offsetInCU: 0x6ED97, offset: 0x6ED97, size: 0x8, addend: 0x0, symName: __ZN8pybind1111error_scopeD1Ev, symObjAddr: 0x2EF0, symBinAddr: 0x40A0, symSize: 0x30 }
  - { offsetInCU: 0x6EE00, offset: 0x6EE00, size: 0x8, addend: 0x0, symName: __ZN8pybind1117error_already_setD0Ev, symObjAddr: 0x2C80, symBinAddr: 0x3E30, symSize: 0x20 }
  - { offsetInCU: 0x6EE60, offset: 0x6EE60, size: 0x8, addend: 0x0, symName: __ZNSt3__112basic_stringIcNS_11char_traitsIcEENS_9allocatorIcEEEC1B8ue170006ILi0EEEPKc, symObjAddr: 0x2CA0, symBinAddr: 0x3E50, symSize: 0x90 }
  - { offsetInCU: 0x6F4A3, offset: 0x6F4A3, size: 0x8, addend: 0x0, symName: __ZN8pybind116detail13string_casterINSt3__112basic_stringIcNS2_11char_traitsIcEENS2_9allocatorIcEEEELb0EE4loadENS_6handleEb, symObjAddr: 0x3070, symBinAddr: 0x4220, symSize: 0x170 }
  - { offsetInCU: 0x6FC01, offset: 0x6FC01, size: 0x8, addend: 0x0, symName: __ZN8pybind116detail13string_casterINSt3__112basic_stringIcNS2_11char_traitsIcEENS2_9allocatorIcEEEELb0EE10load_bytesIcEEbNS2_9enable_ifIXeqstT_Li1EENS_6handleEE4typeE, symObjAddr: 0x3220, symBinAddr: 0x43D0, symSize: 0xE0 }
  - { offsetInCU: 0x70182, offset: 0x70182, size: 0x8, addend: 0x0, symName: __ZN8pybind1110cast_errorCI1St13runtime_errorEPKc, symObjAddr: 0x31E0, symBinAddr: 0x4390, symSize: 0x30 }
  - { offsetInCU: 0x70233, offset: 0x70233, size: 0x8, addend: 0x0, symName: __ZN8pybind1110cast_errorD1Ev, symObjAddr: 0x3210, symBinAddr: 0x43C0, symSize: 0x10 }
  - { offsetInCU: 0x702AA, offset: 0x702AA, size: 0x8, addend: 0x0, symName: __ZN8pybind1110cast_errorD0Ev, symObjAddr: 0x3300, symBinAddr: 0x44B0, symSize: 0x20 }
  - { offsetInCU: 0x7032F, offset: 0x7032F, size: 0x8, addend: 0x0, symName: __ZNK8pybind1110cast_error9set_errorEv, symObjAddr: 0x3320, symBinAddr: 0x44D0, symSize: 0x30 }
  - { offsetInCU: 0x703A5, offset: 0x703A5, size: 0x8, addend: 0x0, symName: __ZN8pybind1118gil_scoped_acquireC1Ev, symObjAddr: 0x34A0, symBinAddr: 0x4650, symSize: 0x10 }
  - { offsetInCU: 0x703E4, offset: 0x703E4, size: 0x8, addend: 0x0, symName: __ZN8pybind1118gil_scoped_acquireD1Ev, symObjAddr: 0x34B0, symBinAddr: 0x4660, symSize: 0x10 }
  - { offsetInCU: 0x70423, offset: 0x70423, size: 0x8, addend: 0x0, symName: __ZN8pybind1118gil_scoped_acquireC2Ev, symObjAddr: 0x34C0, symBinAddr: 0x4670, symSize: 0x90 }
  - { offsetInCU: 0x704D7, offset: 0x704D7, size: 0x8, addend: 0x0, symName: __ZN8pybind1118gil_scoped_acquireD2Ev, symObjAddr: 0xB9E0, symBinAddr: 0xCB90, symSize: 0x30 }
  - { offsetInCU: 0x716A8, offset: 0x716A8, size: 0x8, addend: 0x0, symName: __ZNK8pybind116detail10object_apiINS_6handleEE8containsIRPKcEEbOT_, symObjAddr: 0x3A00, symBinAddr: 0x4BB0, symSize: 0xD0 }
  - { offsetInCU: 0x71971, offset: 0x71971, size: 0x8, addend: 0x0, symName: __ZNK8pybind116detail8accessorINS0_17accessor_policies12generic_itemEE9get_cacheEv, symObjAddr: 0x4630, symBinAddr: 0x57E0, symSize: 0x90 }
  - { offsetInCU: 0x71AFA, offset: 0x71AFA, size: 0x8, addend: 0x0, symName: __ZN8pybind117capsuleD1Ev, symObjAddr: 0x3B20, symBinAddr: 0x4CD0, symSize: 0x30 }
  - { offsetInCU: 0x71B9F, offset: 0x71B9F, size: 0x8, addend: 0x0, symName: __ZN8pybind116detail8accessorINS0_17accessor_policies12generic_itemEED1Ev, symObjAddr: 0x3AD0, symBinAddr: 0x4C80, symSize: 0x50 }
  - { offsetInCU: 0x71CF8, offset: 0x71CF8, size: 0x8, addend: 0x0, symName: __ZNK8pybind116detail10object_apiINS0_8accessorINS0_17accessor_policies8str_attrEEEEclILNS_19return_value_policyE1EJRPKcEEENS_6objectEDpOT0_, symObjAddr: 0x40F0, symBinAddr: 0x52A0, symSize: 0xB0 }
  - { offsetInCU: 0x72144, offset: 0x72144, size: 0x8, addend: 0x0, symName: __ZN8pybind116detail16simple_collectorILNS_19return_value_policyE1EED1Ev, symObjAddr: 0x41A0, symBinAddr: 0x5350, symSize: 0x30 }
  - { offsetInCU: 0x722A1, offset: 0x722A1, size: 0x8, addend: 0x0, symName: __ZN8pybind116detail11type_casterIcvE4castEPKcNS_19return_value_policyENS_6handleE, symObjAddr: 0x42C0, symBinAddr: 0x5470, symSize: 0x150 }
  - { offsetInCU: 0x72AB7, offset: 0x72AB7, size: 0x8, addend: 0x0, symName: __ZNSt3__15arrayIN8pybind116objectELm1EED1Ev, symObjAddr: 0x4440, symBinAddr: 0x55F0, symSize: 0x30 }
  - { offsetInCU: 0x72CA9, offset: 0x72CA9, size: 0x8, addend: 0x0, symName: __ZN8pybind115tupleD1Ev, symObjAddr: 0x4410, symBinAddr: 0x55C0, symSize: 0x30 }
  - { offsetInCU: 0x72D4E, offset: 0x72D4E, size: 0x8, addend: 0x0, symName: __ZN8pybind114noneD1Ev, symObjAddr: 0x4470, symBinAddr: 0x5620, symSize: 0x30 }
  - { offsetInCU: 0x72ED0, offset: 0x72ED0, size: 0x8, addend: 0x0, symName: __ZZN8pybind116detail13get_internalsEvENUlSt13exception_ptrE_8__invokeES1_, symObjAddr: 0x46C0, symBinAddr: 0x5870, symSize: 0x20 }
  - { offsetInCU: 0x72F14, offset: 0x72F14, size: 0x8, addend: 0x0, symName: __ZZN8pybind116detail13get_internalsEvENKUlSt13exception_ptrE_clES1_, symObjAddr: 0x46E0, symBinAddr: 0x5890, symSize: 0x250 }
  - { offsetInCU: 0x731B9, offset: 0x731B9, size: 0x8, addend: 0x0, symName: _pybind11_static_get, symObjAddr: 0x4930, symBinAddr: 0x5AE0, symSize: 0x20 }
  - { offsetInCU: 0x7321C, offset: 0x7321C, size: 0x8, addend: 0x0, symName: _pybind11_static_set, symObjAddr: 0x4950, symBinAddr: 0x5B00, symSize: 0x30 }
  - { offsetInCU: 0x7328A, offset: 0x7328A, size: 0x8, addend: 0x0, symName: _pybind11_meta_setattro, symObjAddr: 0x4980, symBinAddr: 0x5B30, symSize: 0x90 }
  - { offsetInCU: 0x73367, offset: 0x73367, size: 0x8, addend: 0x0, symName: _pybind11_meta_getattro, symObjAddr: 0x4A10, symBinAddr: 0x5BC0, symSize: 0x50 }
  - { offsetInCU: 0x7359E, offset: 0x7359E, size: 0x8, addend: 0x0, symName: _pybind11_object_new, symObjAddr: 0x4A60, symBinAddr: 0x5C10, symSize: 0x110 }
  - { offsetInCU: 0x737F4, offset: 0x737F4, size: 0x8, addend: 0x0, symName: __ZN8pybind116detail8instance15allocate_layoutEv, symObjAddr: 0x4C80, symBinAddr: 0x5E30, symSize: 0x120 }
  - { offsetInCU: 0x739D8, offset: 0x739D8, size: 0x8, addend: 0x0, symName: _pybind11_object_init, symObjAddr: 0x4B70, symBinAddr: 0x5D20, symSize: 0x90 }
  - { offsetInCU: 0x73DB9, offset: 0x73DB9, size: 0x8, addend: 0x0, symName: _pybind11_object_dealloc, symObjAddr: 0x4C00, symBinAddr: 0x5DB0, symSize: 0x30 }
  - { offsetInCU: 0x7417A, offset: 0x7417A, size: 0x8, addend: 0x0, symName: __ZNSt3__112__hash_tableINS_17__hash_value_typeIP11_typeobjectNS_6vectorIPN8pybind116detail9type_infoENS_9allocatorIS8_EEEEEENS_22__unordered_map_hasherIS3_SC_NS_4hashIS3_EENS_8equal_toIS3_EELb1EEENS_21__unordered_map_equalIS3_SC_SH_SF_Lb1EEENS9_ISC_EEE25__emplace_unique_key_argsIS3_JRS3_SB_EEENS_4pairINS_15__hash_iteratorIPNS_11__hash_nodeISC_PvEEEEbEERKT_DpOT0_, symObjAddr: 0x54E0, symBinAddr: 0x6690, symSize: 0x4B0 }
  - { offsetInCU: 0x74997, offset: 0x74997, size: 0x8, addend: 0x0, symName: __ZN8pybind1112cpp_functionD1Ev, symObjAddr: 0x54B0, symBinAddr: 0x6660, symSize: 0x30 }
  - { offsetInCU: 0x75544, offset: 0x75544, size: 0x8, addend: 0x0, symName: __ZNKSt3__112__hash_tableINS_17__hash_value_typeIP11_typeobjectNS_6vectorIPN8pybind116detail9type_infoENS_9allocatorIS8_EEEEEENS_22__unordered_map_hasherIS3_SC_NS_4hashIS3_EENS_8equal_toIS3_EELb1EEENS_21__unordered_map_equalIS3_SC_SH_SF_Lb1EEENS9_ISC_EEE4findIS3_EENS_21__hash_const_iteratorIPNS_11__hash_nodeISC_PvEEEERKT_, symObjAddr: 0xAB70, symBinAddr: 0xBD20, symSize: 0x180 }
  - { offsetInCU: 0x756C9, offset: 0x756C9, size: 0x8, addend: 0x0, symName: __ZNKSt3__16vectorIPN8pybind116detail9type_infoENS_9allocatorIS4_EEE20__throw_length_errorB8ue170006Ev, symObjAddr: 0xACF0, symBinAddr: 0xBEA0, symSize: 0x10 }
  - { offsetInCU: 0x756F2, offset: 0x756F2, size: 0x8, addend: 0x0, symName: __ZN8pybind116detail14clear_instanceEP7_object, symObjAddr: 0xAD00, symBinAddr: 0xBEB0, symSize: 0x2E0 }
  - { offsetInCU: 0x756FD, offset: 0x756FD, size: 0x8, addend: 0x0, symName: __ZNKSt3__16vectorIP11_typeobjectNS_9allocatorIS2_EEE20__throw_length_errorB8ue170006Ev, symObjAddr: 0xAB60, symBinAddr: 0xBD10, symSize: 0x10 }
  - { offsetInCU: 0x75726, offset: 0x75726, size: 0x8, addend: 0x0, symName: __ZNKSt3__112__hash_tableINS_17__hash_value_typeIP11_typeobjectNS_6vectorIPN8pybind116detail9type_infoENS_9allocatorIS8_EEEEEENS_22__unordered_map_hasherIS3_SC_NS_4hashIS3_EENS_8equal_toIS3_EELb1EEENS_21__unordered_map_equalIS3_SC_SH_SF_Lb1EEENS9_ISC_EEE4findIS3_EENS_21__hash_const_iteratorIPNS_11__hash_nodeISC_PvEEEERKT_, symObjAddr: 0xAB70, symBinAddr: 0xBD20, symSize: 0x180 }
  - { offsetInCU: 0x75E3D, offset: 0x75E3D, size: 0x8, addend: 0x0, symName: __ZNSt3__112__hash_tableINS_17__hash_value_typeIP11_typeobjectNS_6vectorIPN8pybind116detail9type_infoENS_9allocatorIS8_EEEEEENS_22__unordered_map_hasherIS3_SC_NS_4hashIS3_EENS_8equal_toIS3_EELb1EEENS_21__unordered_map_equalIS3_SC_SH_SF_Lb1EEENS9_ISC_EEE11__do_rehashILb1EEEvm, symObjAddr: 0x59E0, symBinAddr: 0x6B90, symSize: 0x210 }
  - { offsetInCU: 0x762AB, offset: 0x762AB, size: 0x8, addend: 0x0, symName: __ZNSt3__110unique_ptrINS_11__hash_nodeINS_17__hash_value_typeIP11_typeobjectNS_6vectorIPN8pybind116detail9type_infoENS_9allocatorIS9_EEEEEEPvEENS_22__hash_node_destructorINSA_ISF_EEEEED1B8ue170006Ev, symObjAddr: 0x5990, symBinAddr: 0x6B40, symSize: 0x50 }
  - { offsetInCU: 0x767FA, offset: 0x767FA, size: 0x8, addend: 0x0, symName: __ZN8pybind1112cpp_function20make_function_recordEv, symObjAddr: 0x5CF0, symBinAddr: 0x6EA0, symSize: 0x40 }
  - { offsetInCU: 0x76897, offset: 0x76897, size: 0x8, addend: 0x0, symName: __ZNO8pybind116detail5descrplEOS1_, symObjAddr: 0x5D90, symBinAddr: 0x6F40, symSize: 0x1B0 }
  - { offsetInCU: 0x769B3, offset: 0x769B3, size: 0x8, addend: 0x0, symName: __ZN8pybind1112cpp_function18initialize_genericEPNS_6detail15function_recordEPKcPKPKSt9type_infom, symObjAddr: 0x5F40, symBinAddr: 0x70F0, symSize: 0xEC0 }
  - { offsetInCU: 0x799B3, offset: 0x799B3, size: 0x8, addend: 0x0, symName: __ZN8pybind116detail5descrC1EPKcPKPKSt9type_info, symObjAddr: 0x7270, symBinAddr: 0x8420, symSize: 0x10 }
  - { offsetInCU: 0x79A68, offset: 0x79A68, size: 0x8, addend: 0x0, symName: __ZN8pybind116detail5descrC1Ev, symObjAddr: 0x7320, symBinAddr: 0x84D0, symSize: 0x10 }
  - { offsetInCU: 0x79D0B, offset: 0x79D0B, size: 0x8, addend: 0x0, symName: __ZNK8pybind116detail10object_apiINS0_8accessorINS0_17accessor_policies8str_attrEEEEclILNS_19return_value_policyE1EJEEENS_6objectEDpOT0_, symObjAddr: 0x7410, symBinAddr: 0x85C0, symSize: 0xC0 }
  - { offsetInCU: 0x7A00C, offset: 0x7A00C, size: 0x8, addend: 0x0, symName: __ZNSt3__16vectorIN8pybind116detail15argument_recordENS_9allocatorIS3_EEE13shrink_to_fitEv, symObjAddr: 0x77D0, symBinAddr: 0x8980, symSize: 0xD0 }
  - { offsetInCU: 0x7A633, offset: 0x7A633, size: 0x8, addend: 0x0, symName: __ZZN8pybind1112cpp_function10initializeIZNS_6detail23all_type_info_get_cacheEP11_typeobjectEUlNS_6handleEE_vJS5_EJEEEvOT_PFT0_DpT1_EDpRKT2_ENUlRNS2_13function_callEE_8__invokeESJ_, symObjAddr: 0x6E00, symBinAddr: 0x7FB0, symSize: 0x70 }
  - { offsetInCU: 0x7A874, offset: 0x7A874, size: 0x8, addend: 0x0, symName: __ZN8pybind116detail15argument_loaderIJNS_6handleEEE9call_implIvRZNS0_23all_type_info_get_cacheEP11_typeobjectEUlS2_E_JLm0EENS0_9void_typeEEET_OT0_NS0_14index_sequenceIJXspT1_EEEEOT2_, symObjAddr: 0x6E70, symBinAddr: 0x8020, symSize: 0x90 }
  - { offsetInCU: 0x7ADFB, offset: 0x7ADFB, size: 0x8, addend: 0x0, symName: __ZNSt3__112__hash_tableINS_17__hash_value_typeIP11_typeobjectNS_6vectorIPN8pybind116detail9type_infoENS_9allocatorIS8_EEEEEENS_22__unordered_map_hasherIS3_SC_NS_4hashIS3_EENS_8equal_toIS3_EELb1EEENS_21__unordered_map_equalIS3_SC_SH_SF_Lb1EEENS9_ISC_EEE4findIS3_EENS_15__hash_iteratorIPNS_11__hash_nodeISC_PvEEEERKT_, symObjAddr: 0x6F00, symBinAddr: 0x80B0, symSize: 0x180 }
  - { offsetInCU: 0x7AF80, offset: 0x7AF80, size: 0x8, addend: 0x0, symName: __ZNSt3__112__hash_tableINS_17__hash_value_typeIP11_typeobjectNS_6vectorIPN8pybind116detail9type_infoENS_9allocatorIS8_EEEEEENS_22__unordered_map_hasherIS3_SC_NS_4hashIS3_EENS_8equal_toIS3_EELb1EEENS_21__unordered_map_equalIS3_SC_SH_SF_Lb1EEENS9_ISC_EEE6removeENS_21__hash_const_iteratorIPNS_11__hash_nodeISC_PvEEEE, symObjAddr: 0x7080, symBinAddr: 0x8230, symSize: 0x1F0 }
  - { offsetInCU: 0x7B23E, offset: 0x7B23E, size: 0x8, addend: 0x0, symName: __ZN8pybind116detail5descrC2EPKcPKPKSt9type_info, symObjAddr: 0x7280, symBinAddr: 0x8430, symSize: 0xA0 }
  - { offsetInCU: 0x7B2EE, offset: 0x7B2EE, size: 0x8, addend: 0x0, symName: __ZN8pybind116detail5descrC2Ev, symObjAddr: 0x7330, symBinAddr: 0x84E0, symSize: 0x10 }
  - { offsetInCU: 0x7B3D3, offset: 0x7B3D3, size: 0x8, addend: 0x0, symName: __ZNSt3__112__hash_tableINS_17__hash_value_typeINS_10type_indexEPvEENS_22__unordered_map_hasherIS2_S4_N8pybind116detail9type_hashENS7_13type_equal_toELb1EEENS_21__unordered_map_equalIS2_S4_S9_S8_Lb1EEENS_9allocatorIS4_EEE4findIS2_EENS_15__hash_iteratorIPNS_11__hash_nodeIS4_S3_EEEERKT_, symObjAddr: 0x9960, symBinAddr: 0xAB10, symSize: 0x1E0 }
  - { offsetInCU: 0x7CAF4, offset: 0x7CAF4, size: 0x8, addend: 0x0, symName: __ZN8pybind1112cpp_function10dispatcherEP7_objectS2_S2_, symObjAddr: 0x78A0, symBinAddr: 0x8A50, symSize: 0x20C0 }
  - { offsetInCU: 0x842C8, offset: 0x842C8, size: 0x8, addend: 0x0, symName: __ZNSt3__16vectorIbNS_9allocatorIbEEE7reserveEm, symObjAddr: 0xA030, symBinAddr: 0xB1E0, symSize: 0x140 }
  - { offsetInCU: 0x84731, offset: 0x84731, size: 0x8, addend: 0x0, symName: __ZNSt3__16vectorIbNS_9allocatorIbEEE6resizeEmb, symObjAddr: 0x9BA0, symBinAddr: 0xAD50, symSize: 0x2A0 }
  - { offsetInCU: 0x84F9B, offset: 0x84F9B, size: 0x8, addend: 0x0, symName: __ZN8pybind116detail19loader_life_supportC2Ev, symObjAddr: 0xA190, symBinAddr: 0xB340, symSize: 0x150 }
  - { offsetInCU: 0x8551C, offset: 0x8551C, size: 0x8, addend: 0x0, symName: __ZN8pybind116detail19loader_life_supportD2Ev, symObjAddr: 0xA2F0, symBinAddr: 0xB4A0, symSize: 0xE0 }
  - { offsetInCU: 0x85692, offset: 0x85692, size: 0x8, addend: 0x0, symName: __ZNSt3__16vectorIN8pybind116detail13function_callENS_9allocatorIS3_EEE21__push_back_slow_pathIS3_EEvOT_, symObjAddr: 0xA490, symBinAddr: 0xB640, symSize: 0x1E0 }
  - { offsetInCU: 0x85FCF, offset: 0x85FCF, size: 0x8, addend: 0x0, symName: __ZNK8pybind116detail8accessorINS0_17accessor_policies10tuple_itemEE9get_cacheEv, symObjAddr: 0xA680, symBinAddr: 0xB830, symSize: 0xA0 }
  - { offsetInCU: 0x8617E, offset: 0x8617E, size: 0x8, addend: 0x0, symName: __ZNK8pybind113str6formatIJRNS_6handleES3_EEES0_DpOT_, symObjAddr: 0x9F00, symBinAddr: 0xB0B0, symSize: 0xD0 }
  - { offsetInCU: 0x86436, offset: 0x86436, size: 0x8, addend: 0x0, symName: __ZNKSt3__16vectorIbNS_9allocatorIbEEE20__throw_length_errorB8ue170006Ev, symObjAddr: 0xA180, symBinAddr: 0xB330, symSize: 0x10 }
  - { offsetInCU: 0x8645F, offset: 0x8645F, size: 0x8, addend: 0x0, symName: __ZN8pybind116detail19loader_life_supportC2Ev, symObjAddr: 0xA190, symBinAddr: 0xB340, symSize: 0x150 }
  - { offsetInCU: 0x8646A, offset: 0x8646A, size: 0x8, addend: 0x0, symName: __ZNKSt3__16vectorIN8pybind116handleENS_9allocatorIS2_EEE20__throw_length_errorB8ue170006Ev, symObjAddr: 0xA170, symBinAddr: 0xB320, symSize: 0x10 }
  - { offsetInCU: 0x86493, offset: 0x86493, size: 0x8, addend: 0x0, symName: __ZNKSt3__16vectorIbNS_9allocatorIbEEE20__throw_length_errorB8ue170006Ev, symObjAddr: 0xA180, symBinAddr: 0xB330, symSize: 0x10 }
  - { offsetInCU: 0x8649E, offset: 0x8649E, size: 0x8, addend: 0x0, symName: __ZN8pybind114dictD1Ev, symObjAddr: 0x9B40, symBinAddr: 0xACF0, symSize: 0x30 }
  - { offsetInCU: 0x86543, offset: 0x86543, size: 0x8, addend: 0x0, symName: __ZN8pybind116detail8accessorINS0_17accessor_policies10tuple_itemEED1Ev, symObjAddr: 0x9B70, symBinAddr: 0xAD20, symSize: 0x30 }
  - { offsetInCU: 0x865FC, offset: 0x865FC, size: 0x8, addend: 0x0, symName: __ZN8pybind116detail13function_callD1Ev, symObjAddr: 0x9E40, symBinAddr: 0xAFF0, symSize: 0x40 }
  - { offsetInCU: 0x86874, offset: 0x86874, size: 0x8, addend: 0x0, symName: __ZNSt3__16vectorIN8pybind116detail13function_callENS_9allocatorIS3_EEED1B8ue170006Ev, symObjAddr: 0x9E80, symBinAddr: 0xB030, symSize: 0x80 }
  - { offsetInCU: 0x86F64, offset: 0x86F64, size: 0x8, addend: 0x0, symName: __ZNK8pybind116detail10object_apiINS0_8accessorINS0_17accessor_policies8str_attrEEEEclILNS_19return_value_policyE1EJRNS_6handleESA_EEENS_6objectEDpOT0_, symObjAddr: 0xA720, symBinAddr: 0xB8D0, symSize: 0xC0 }
  - { offsetInCU: 0x8725C, offset: 0x8725C, size: 0x8, addend: 0x0, symName: __ZN8pybind113strC1ERKNS_6objectE, symObjAddr: 0xA7E0, symBinAddr: 0xB990, symSize: 0x90 }
  - { offsetInCU: 0x8793E, offset: 0x8793E, size: 0x8, addend: 0x0, symName: __ZNKSt3__16vectorIP7_objectNS_9allocatorIS2_EEE20__throw_length_errorB8ue170006Ev, symObjAddr: 0xA2E0, symBinAddr: 0xB490, symSize: 0x10 }
  - { offsetInCU: 0x87967, offset: 0x87967, size: 0x8, addend: 0x0, symName: __ZN8pybind116detail19loader_life_supportD2Ev, symObjAddr: 0xA2F0, symBinAddr: 0xB4A0, symSize: 0xE0 }
  - { offsetInCU: 0x87A12, offset: 0x87A12, size: 0x8, addend: 0x0, symName: __ZNSt3__16vectorIP7_objectNS_9allocatorIS2_EEE13shrink_to_fitEv, symObjAddr: 0xA3D0, symBinAddr: 0xB580, symSize: 0xC0 }
  - { offsetInCU: 0x8803A, offset: 0x8803A, size: 0x8, addend: 0x0, symName: __ZNKSt3__16vectorIN8pybind116detail13function_callENS_9allocatorIS3_EEE20__throw_length_errorB8ue170006Ev, symObjAddr: 0xA670, symBinAddr: 0xB820, symSize: 0x10 }
  - { offsetInCU: 0x88063, offset: 0x88063, size: 0x8, addend: 0x0, symName: __ZNK8pybind116detail8accessorINS0_17accessor_policies10tuple_itemEE9get_cacheEv, symObjAddr: 0xA680, symBinAddr: 0xB830, symSize: 0xA0 }
  - { offsetInCU: 0x881EC, offset: 0x881EC, size: 0x8, addend: 0x0, symName: __ZNSt3__15arrayIN8pybind116objectELm2EED1Ev, symObjAddr: 0xA9D0, symBinAddr: 0xBB80, symSize: 0x50 }
  - { offsetInCU: 0x882E1, offset: 0x882E1, size: 0x8, addend: 0x0, symName: __ZZN8pybind1112cpp_function18initialize_genericEPNS_6detail15function_recordEPKcPKPKSt9type_infomENUlPvE_8__invokeESB_, symObjAddr: 0xAA20, symBinAddr: 0xBBD0, symSize: 0x10 }
  - { offsetInCU: 0x8833C, offset: 0x8833C, size: 0x8, addend: 0x0, symName: __ZN8pybind1112cpp_function8destructEPNS_6detail15function_recordE, symObjAddr: 0xAA30, symBinAddr: 0xBBE0, symSize: 0x100 }
  - { offsetInCU: 0x88763, offset: 0x88763, size: 0x8, addend: 0x0, symName: __ZZN8pybind117capsuleC1EPKvPFvPvEENUlP7_objectE_8__invokeES7_, symObjAddr: 0xAB30, symBinAddr: 0xBCE0, symSize: 0x30 }
  - { offsetInCU: 0x88B1B, offset: 0x88B1B, size: 0x8, addend: 0x0, symName: __ZNSt3__112__hash_tableINS_17__hash_value_typeIPKvPN8pybind116detail8instanceEEENS_22__unordered_map_hasherIS3_S8_NS_4hashIS3_EENS_8equal_toIS3_EELb1EEENS_21__unordered_map_equalIS3_S8_SD_SB_Lb1EEENS_9allocatorIS8_EEE4findIS3_EENS_15__hash_iteratorIPNS_11__hash_nodeIS8_PvEEEERKT_, symObjAddr: 0xB300, symBinAddr: 0xC4B0, symSize: 0x180 }
  - { offsetInCU: 0x88CA0, offset: 0x88CA0, size: 0x8, addend: 0x0, symName: __ZNSt3__112__hash_tableINS_17__hash_value_typeIPKvPN8pybind116detail8instanceEEENS_22__unordered_map_hasherIS3_S8_NS_4hashIS3_EENS_8equal_toIS3_EELb1EEENS_21__unordered_map_equalIS3_S8_SD_SB_Lb1EEENS_9allocatorIS8_EEE6removeENS_21__hash_const_iteratorIPNS_11__hash_nodeIS8_PvEEEE, symObjAddr: 0xB480, symBinAddr: 0xC630, symSize: 0x1F0 }
  - { offsetInCU: 0x88F5E, offset: 0x88F5E, size: 0x8, addend: 0x0, symName: __ZN8pybind116detail8instance17deallocate_layoutEv, symObjAddr: 0xAFE0, symBinAddr: 0xC190, symSize: 0x20 }
  - { offsetInCU: 0x89257, offset: 0x89257, size: 0x8, addend: 0x0, symName: __ZNSt3__112__hash_tableINS_17__hash_value_typeIPK7_objectNS_6vectorIPS2_NS_9allocatorIS6_EEEEEENS_22__unordered_map_hasherIS4_SA_NS_4hashIS4_EENS_8equal_toIS4_EELb1EEENS_21__unordered_map_equalIS4_SA_SF_SD_Lb1EEENS7_ISA_EEE4findIS4_EENS_15__hash_iteratorIPNS_11__hash_nodeISA_PvEEEERKT_, symObjAddr: 0xB670, symBinAddr: 0xC820, symSize: 0x180 }
  - { offsetInCU: 0x893DC, offset: 0x893DC, size: 0x8, addend: 0x0, symName: __ZNSt3__112__hash_tableINS_17__hash_value_typeIPK7_objectNS_6vectorIPS2_NS_9allocatorIS6_EEEEEENS_22__unordered_map_hasherIS4_SA_NS_4hashIS4_EENS_8equal_toIS4_EELb1EEENS_21__unordered_map_equalIS4_SA_SF_SD_Lb1EEENS7_ISA_EEE6removeENS_21__hash_const_iteratorIPNS_11__hash_nodeISA_PvEEEE, symObjAddr: 0xB7F0, symBinAddr: 0xC9A0, symSize: 0x1F0 }
  - { offsetInCU: 0x89B0E, offset: 0x89B0E, size: 0x8, addend: 0x0, symName: __ZN8pybind1118gil_scoped_acquire7dec_refEv, symObjAddr: 0xBA10, symBinAddr: 0xCBC0, symSize: 0x40 }
  - { offsetInCU: 0x89C95, offset: 0x89C95, size: 0x8, addend: 0x0, symName: __ZN8pybind1111buffer_infoC2EPvlRKNSt3__112basic_stringIcNS2_11char_traitsIcEENS2_9allocatorIcEEEElNS_6detail13any_containerIlEESD_.cold.1, symObjAddr: 0xED80, symBinAddr: 0x25E70, symSize: 0x35 }
  - { offsetInCU: 0x8A0AF, offset: 0x8A0AF, size: 0x8, addend: 0x0, symName: __ZN8pybind116module10add_objectEPKcNS_6handleEb, symObjAddr: 0xBEA0, symBinAddr: 0xD050, symSize: 0x130 }
  - { offsetInCU: 0x8A73D, offset: 0x8A73D, size: 0x8, addend: 0x0, symName: __ZN8pybind116detail16handle_type_nameINS_7array_tIfLi17EEEE4nameEv, symObjAddr: 0xD4D0, symBinAddr: 0xE680, symSize: 0xC0 }
  - { offsetInCU: 0x8A884, offset: 0x8A884, size: 0x8, addend: 0x0, symName: __ZN8pybind116detail11list_casterINSt3__16vectorINS3_IfNS2_9allocatorIfEEEENS4_IS6_EEEES6_E4nameEv, symObjAddr: 0xC140, symBinAddr: 0xD2F0, symSize: 0x100 }
  - { offsetInCU: 0x8A9DF, offset: 0x8A9DF, size: 0x8, addend: 0x0, symName: __ZZN8pybind1112cpp_function10initializeIRPFNSt3__16vectorINS3_IfNS2_9allocatorIfEEEENS4_IS6_EEEENS_7array_tIfLi17EEEfES8_JSA_fEJNS_4nameENS_5scopeENS_7siblingEA18_cEEEvOT_PFT0_DpT1_EDpRKT2_ENUlRNS_6detail13function_callEE_8__invokeESV_, symObjAddr: 0xC240, symBinAddr: 0xD3F0, symSize: 0x20 }
  - { offsetInCU: 0x8AA23, offset: 0x8AA23, size: 0x8, addend: 0x0, symName: __ZZN8pybind1112cpp_function10initializeIRPFNSt3__16vectorINS3_IfNS2_9allocatorIfEEEENS4_IS6_EEEENS_7array_tIfLi17EEEfES8_JSA_fEJNS_4nameENS_5scopeENS_7siblingEA18_cEEEvOT_PFT0_DpT1_EDpRKT2_ENKUlRNS_6detail13function_callEE_clESV_, symObjAddr: 0xC260, symBinAddr: 0xD410, symSize: 0x160 }
  - { offsetInCU: 0x8B919, offset: 0x8B919, size: 0x8, addend: 0x0, symName: __ZN8pybind115arrayC2IfEElPKT_NS_6handleE, symObjAddr: 0xC4E0, symBinAddr: 0xD690, symSize: 0xD0 }
  - { offsetInCU: 0x8C335, offset: 0x8C335, size: 0x8, addend: 0x0, symName: __ZN8pybind116detail15argument_loaderIJNS_7array_tIfLi17EEEfEE18load_impl_sequenceIJLm0ELm1EEEEbRNS0_13function_callENS0_14index_sequenceIJXspT_EEEE, symObjAddr: 0xCEA0, symBinAddr: 0xE050, symSize: 0xB0 }
  - { offsetInCU: 0x8C5DA, offset: 0x8C5DA, size: 0x8, addend: 0x0, symName: __ZN8pybind116detail11list_casterINSt3__16vectorINS3_IfNS2_9allocatorIfEEEENS4_IS6_EEEES6_E4castIS8_EENS_6handleEOT_NS_19return_value_policyESB_, symObjAddr: 0xC3C0, symBinAddr: 0xD570, symSize: 0xF0 }
  - { offsetInCU: 0x8C88A, offset: 0x8C88A, size: 0x8, addend: 0x0, symName: __ZN8pybind116detail15argument_loaderIJNS_7array_tIfLi17EEEfEED1Ev, symObjAddr: 0xC4B0, symBinAddr: 0xD660, symSize: 0x30 }
  - { offsetInCU: 0x8CB4F, offset: 0x8CB4F, size: 0x8, addend: 0x0, symName: __ZN8pybind116detail11list_casterINSt3__16vectorIfNS2_9allocatorIfEEEEfE4castIS6_EENS_6handleEOT_NS_19return_value_policyES9_, symObjAddr: 0xD370, symBinAddr: 0xE520, symSize: 0xD0 }
  - { offsetInCU: 0x8CE01, offset: 0x8CE01, size: 0x8, addend: 0x0, symName: __ZN8pybind114listD1Ev, symObjAddr: 0xD440, symBinAddr: 0xE5F0, symSize: 0x30 }
  - { offsetInCU: 0x8D18B, offset: 0x8D18B, size: 0x8, addend: 0x0, symName: __ZN8pybind115arrayC2IfEENS_6detail13any_containerIlEES4_PKT_NS_6handleE, symObjAddr: 0xC5B0, symBinAddr: 0xD760, symSize: 0x1B0 }
  - { offsetInCU: 0x8DC5B, offset: 0x8DC5B, size: 0x8, addend: 0x0, symName: __ZN8pybind115arrayC2ERKNS_5dtypeENS_6detail13any_containerIlEES6_PKvNS_6handleE, symObjAddr: 0xC760, symBinAddr: 0xD910, symSize: 0x4F0 }
  - { offsetInCU: 0x8E72C, offset: 0x8E72C, size: 0x8, addend: 0x0, symName: __ZN8pybind116detail7npy_api6lookupEv, symObjAddr: 0xCC80, symBinAddr: 0xDE30, symSize: 0x1F0 }
  - { offsetInCU: 0x8EADE, offset: 0x8EADE, size: 0x8, addend: 0x0, symName: __ZN8pybind115dtypeD1Ev, symObjAddr: 0xCC50, symBinAddr: 0xDE00, symSize: 0x30 }
  - { offsetInCU: 0x8EF0D, offset: 0x8EF0D, size: 0x8, addend: 0x0, symName: __ZN8pybind116bufferD2Ev, symObjAddr: 0xCE70, symBinAddr: 0xE020, symSize: 0x30 }
  - { offsetInCU: 0x8F0E5, offset: 0x8F0E5, size: 0x8, addend: 0x0, symName: __ZN8pybind117array_tIfLi17EE6check_ENS_6handleE, symObjAddr: 0xD0F0, symBinAddr: 0xE2A0, symSize: 0x140 }
  - { offsetInCU: 0x8F351, offset: 0x8F351, size: 0x8, addend: 0x0, symName: __ZN8pybind117array_tIfLi17EE11raw_array_tEP7_object, symObjAddr: 0xD230, symBinAddr: 0xE3E0, symSize: 0x140 }
  - { offsetInCU: 0x8F523, offset: 0x8F523, size: 0x8, addend: 0x0, symName: __ZN8pybind116detail11type_casterIfvE4loadENS_6handleEb, symObjAddr: 0xCF50, symBinAddr: 0xE100, symSize: 0x1A0 }
  - { offsetInCU: 0x8FECF, offset: 0x8FECF, size: 0x8, addend: 0x0, symName: __ZNKSt3__16vectorIN5lanms7PolygonENS_9allocatorIS2_EEE20__throw_length_errorB8ue170006Ev, symObjAddr: 0xEBD0, symBinAddr: 0xFD80, symSize: 0x10 }
  - { offsetInCU: 0x8FEF8, offset: 0x8FEF8, size: 0x8, addend: 0x0, symName: __ZNSt3__16vectorINS0_IfNS_9allocatorIfEEEENS1_IS3_EEE24__emplace_back_slow_pathIJS3_EEEvDpOT_, symObjAddr: 0xEBE0, symBinAddr: 0xFD90, symSize: 0x190 }
  - { offsetInCU: 0x8FF03, offset: 0x8FF03, size: 0x8, addend: 0x0, symName: __ZNSt3__114__split_bufferIN5lanms7PolygonERNS_9allocatorIS2_EEED1Ev, symObjAddr: 0xEB70, symBinAddr: 0xFD20, symSize: 0x60 }
  - { offsetInCU: 0x9041B, offset: 0x9041B, size: 0x8, addend: 0x0, symName: __ZNKSt3__16vectorINS0_IfNS_9allocatorIfEEEENS1_IS3_EEE20__throw_length_errorB8ue170006Ev, symObjAddr: 0xED70, symBinAddr: 0xFF20, symSize: 0x10 }
  - { offsetInCU: 0x90444, offset: 0x90444, size: 0x8, addend: 0x0, symName: __ZN8pybind1111buffer_infoC2EPvlRKNSt3__112basic_stringIcNS2_11char_traitsIcEENS2_9allocatorIcEEEElNS_6detail13any_containerIlEESD_.cold.1, symObjAddr: 0xED80, symBinAddr: 0x25E70, symSize: 0x35 }
  - { offsetInCU: 0x76A, offset: 0x90CD2, size: 0x8, addend: 0x0, symName: __ZN10ClipperLib9Int128MulExx, symObjAddr: 0x340, symBinAddr: 0x10270, symSize: 0xA0 }
  - { offsetInCU: 0x84B, offset: 0x90DB3, size: 0x8, addend: 0x0, symName: __ZN10ClipperLib11OrientationERKNSt3__16vectorINS_8IntPointENS0_9allocatorIS2_EEEE, symObjAddr: 0x3E0, symBinAddr: 0x10310, symSize: 0x90 }
  - { offsetInCU: 0x8EC, offset: 0x90E54, size: 0x8, addend: 0x0, symName: __ZN10ClipperLib4AreaERKNSt3__16vectorINS_8IntPointENS0_9allocatorIS2_EEEE, symObjAddr: 0x470, symBinAddr: 0x103A0, symSize: 0x90 }
  - { offsetInCU: 0x96E, offset: 0x90ED6, size: 0x8, addend: 0x0, symName: __ZN10ClipperLib4AreaEPKNS_5OutPtE, symObjAddr: 0x500, symBinAddr: 0x10430, symSize: 0x60 }
  - { offsetInCU: 0x9D2, offset: 0x90F3A, size: 0x8, addend: 0x0, symName: __ZN10ClipperLib4AreaERKNS_6OutRecE, symObjAddr: 0x560, symBinAddr: 0x10490, symSize: 0x70 }
  - { offsetInCU: 0xA46, offset: 0x90FAE, size: 0x8, addend: 0x0, symName: __ZN10ClipperLib13PointIsVertexERKNS_8IntPointEPNS_5OutPtE, symObjAddr: 0x5D0, symBinAddr: 0x10500, symSize: 0x40 }
  - { offsetInCU: 0xAB3, offset: 0x9101B, size: 0x8, addend: 0x0, symName: __ZN10ClipperLib14PointInPolygonERKNS_8IntPointERKNSt3__16vectorIS0_NS3_9allocatorIS0_EEEE, symObjAddr: 0x610, symBinAddr: 0x10540, symSize: 0x150 }
  - { offsetInCU: 0xB73, offset: 0x910DB, size: 0x8, addend: 0x0, symName: __ZN10ClipperLib14PointInPolygonERKNS_8IntPointEPNS_5OutPtE, symObjAddr: 0x760, symBinAddr: 0x10690, symSize: 0x180 }
  - { offsetInCU: 0xBD8, offset: 0x91140, size: 0x8, addend: 0x0, symName: __ZN10ClipperLib18Poly2ContainsPoly1EPNS_5OutPtES1_, symObjAddr: 0x8E0, symBinAddr: 0x10810, symSize: 0x50 }
  - { offsetInCU: 0xCC7, offset: 0x9122F, size: 0x8, addend: 0x0, symName: __ZN10ClipperLib11SlopesEqualERKNS_5TEdgeES2_b, symObjAddr: 0x930, symBinAddr: 0x10860, symSize: 0x150 }
  - { offsetInCU: 0xE23, offset: 0x9138B, size: 0x8, addend: 0x0, symName: __ZN10ClipperLib11SlopesEqualENS_8IntPointES0_S0_b, symObjAddr: 0xA80, symBinAddr: 0x109B0, symSize: 0x140 }
  - { offsetInCU: 0xF8B, offset: 0x914F3, size: 0x8, addend: 0x0, symName: __ZN10ClipperLib11SlopesEqualENS_8IntPointES0_S0_S0_b, symObjAddr: 0xBC0, symBinAddr: 0x10AF0, symSize: 0x140 }
  - { offsetInCU: 0x1167, offset: 0x916CF, size: 0x8, addend: 0x0, symName: __ZN10ClipperLib14IntersectPointERNS_5TEdgeES1_RNS_8IntPointE, symObjAddr: 0xD00, symBinAddr: 0x10C30, symSize: 0x3B0 }
  - { offsetInCU: 0x1335, offset: 0x9189D, size: 0x8, addend: 0x0, symName: __ZN10ClipperLib18ReversePolyPtLinksEPNS_5OutPtE, symObjAddr: 0x10B0, symBinAddr: 0x10FE0, symSize: 0x30 }
  - { offsetInCU: 0x1363, offset: 0x918CB, size: 0x8, addend: 0x0, symName: __ZN10ClipperLib13DisposeOutPtsERPNS_5OutPtE, symObjAddr: 0x10E0, symBinAddr: 0x11010, symSize: 0x50 }
  - { offsetInCU: 0x13BD, offset: 0x91925, size: 0x8, addend: 0x0, symName: __ZN10ClipperLib9InitEdge2ERNS_5TEdgeENS_8PolyTypeE, symObjAddr: 0x1130, symBinAddr: 0x11060, symSize: 0x80 }
  - { offsetInCU: 0x13FC, offset: 0x91964, size: 0x8, addend: 0x0, symName: __ZN10ClipperLib10RemoveEdgeEPNS_5TEdgeE, symObjAddr: 0x11B0, symBinAddr: 0x110E0, symSize: 0x30 }
  - { offsetInCU: 0x1421, offset: 0x91989, size: 0x8, addend: 0x0, symName: __ZN10ClipperLib10SwapPointsERNS_8IntPointES1_, symObjAddr: 0x11E0, symBinAddr: 0x11110, symSize: 0x20 }
  - { offsetInCU: 0x149B, offset: 0x91A03, size: 0x8, addend: 0x0, symName: __ZN10ClipperLib17GetOverlapSegmentENS_8IntPointES0_S0_S0_RS0_S1_, symObjAddr: 0x1200, symBinAddr: 0x11130, symSize: 0x130 }
  - { offsetInCU: 0x15CA, offset: 0x91B32, size: 0x8, addend: 0x0, symName: __ZN10ClipperLib15FirstIsBottomPtEPKNS_5OutPtES2_, symObjAddr: 0x1330, symBinAddr: 0x11260, symSize: 0x200 }
  - { offsetInCU: 0x17AA, offset: 0x91D12, size: 0x8, addend: 0x0, symName: __ZN10ClipperLib11GetBottomPtEPNS_5OutPtE, symObjAddr: 0x1530, symBinAddr: 0x11460, symSize: 0xC0 }
  - { offsetInCU: 0x1813, offset: 0x91D7B, size: 0x8, addend: 0x0, symName: __ZN10ClipperLib21Pt2IsBetweenPt1AndPt3ENS_8IntPointES0_S0_, symObjAddr: 0x15F0, symBinAddr: 0x11520, symSize: 0x60 }
  - { offsetInCU: 0x187A, offset: 0x91DE2, size: 0x8, addend: 0x0, symName: __ZN10ClipperLib19HorzSegmentsOverlapExxxx, symObjAddr: 0x1650, symBinAddr: 0x11580, symSize: 0x30 }
  - { offsetInCU: 0x1BBA, offset: 0x92122, size: 0x8, addend: 0x0, symName: __ZN10ClipperLib9RangeTestERKNS_8IntPointERb, symObjAddr: 0x1830, symBinAddr: 0x11750, symSize: 0xD0 }
  - { offsetInCU: 0x1C02, offset: 0x9216A, size: 0x8, addend: 0x0, symName: __ZN10ClipperLib14FindNextLocMinEPNS_5TEdgeE, symObjAddr: 0x19F0, symBinAddr: 0x11910, symSize: 0xD0 }
  - { offsetInCU: 0x270A, offset: 0x92C72, size: 0x8, addend: 0x0, symName: __ZN10ClipperLib15GetLowermostRecEPNS_6OutRecES1_, symObjAddr: 0x7DD0, symBinAddr: 0x17CF0, symSize: 0x210 }
  - { offsetInCU: 0x2966, offset: 0x92ECE, size: 0x8, addend: 0x0, symName: __ZN10ClipperLib21OutRec1RightOfOutRec2EPNS_6OutRecES1_, symObjAddr: 0x7FE0, symBinAddr: 0x17F00, symSize: 0x30 }
  - { offsetInCU: 0x29F2, offset: 0x92F5A, size: 0x8, addend: 0x0, symName: __ZN10ClipperLib13GetMaximaPairEPNS_5TEdgeE, symObjAddr: 0x8FF0, symBinAddr: 0x18F10, symSize: 0x40 }
  - { offsetInCU: 0x2A55, offset: 0x92FBD, size: 0x8, addend: 0x0, symName: __ZN10ClipperLib15GetMaximaPairExEPNS_5TEdgeE, symObjAddr: 0x9030, symBinAddr: 0x18F50, symSize: 0x70 }
  - { offsetInCU: 0x2AFA, offset: 0x93062, size: 0x8, addend: 0x0, symName: __ZN10ClipperLib12GetNextInAELEPNS_5TEdgeENS_9DirectionE, symObjAddr: 0x91F0, symBinAddr: 0x19110, symSize: 0x20 }
  - { offsetInCU: 0x2B1D, offset: 0x93085, size: 0x8, addend: 0x0, symName: __ZN10ClipperLib16GetHorzDirectionERNS_5TEdgeERNS_9DirectionERxS4_, symObjAddr: 0x9210, symBinAddr: 0x19130, symSize: 0x30 }
  - { offsetInCU: 0x2B6C, offset: 0x930D4, size: 0x8, addend: 0x0, symName: __ZN10ClipperLib17IntersectListSortEPNS_13IntersectNodeES1_, symObjAddr: 0x9A10, symBinAddr: 0x19930, symSize: 0x20 }
  - { offsetInCU: 0x2BA9, offset: 0x93111, size: 0x8, addend: 0x0, symName: __ZN10ClipperLib10PointCountEPNS_5OutPtE, symObjAddr: 0x9EE0, symBinAddr: 0x19E00, symSize: 0x20 }
  - { offsetInCU: 0x2BD7, offset: 0x9313F, size: 0x8, addend: 0x0, symName: __ZN10ClipperLib18SwapIntersectNodesERNS_13IntersectNodeES1_, symObjAddr: 0xA030, symBinAddr: 0x19F50, symSize: 0x30 }
  - { offsetInCU: 0x2C23, offset: 0x9318B, size: 0x8, addend: 0x0, symName: __ZN10ClipperLib10GetOverlapExxxxRxS0_, symObjAddr: 0xA060, symBinAddr: 0x19F80, symSize: 0x70 }
  - { offsetInCU: 0x2C6A, offset: 0x931D2, size: 0x8, addend: 0x0, symName: __ZN10ClipperLib8DupOutPtEPNS_5OutPtEb, symObjAddr: 0xA0D0, symBinAddr: 0x19FF0, symSize: 0x60 }
  - { offsetInCU: 0x2CD0, offset: 0x93238, size: 0x8, addend: 0x0, symName: __ZN10ClipperLib8JoinHorzEPNS_5OutPtES1_S1_S1_NS_8IntPointEb, symObjAddr: 0xA130, symBinAddr: 0x1A050, symSize: 0x520 }
  - { offsetInCU: 0x2F35, offset: 0x9349D, size: 0x8, addend: 0x0, symName: __ZN10ClipperLib13GetUnitNormalERKNS_8IntPointES2_, symObjAddr: 0xB300, symBinAddr: 0x1B220, symSize: 0x70 }
  - { offsetInCU: 0x31CD, offset: 0x93735, size: 0x8, addend: 0x0, symName: __ZN10ClipperLib11ReversePathERNSt3__16vectorINS_8IntPointENS0_9allocatorIS2_EEEE, symObjAddr: 0xBF30, symBinAddr: 0x1BDD0, symSize: 0x50 }
  - { offsetInCU: 0x339F, offset: 0x93907, size: 0x8, addend: 0x0, symName: __ZN10ClipperLib12ReversePathsERNSt3__16vectorINS1_INS_8IntPointENS0_9allocatorIS2_EEEENS3_IS5_EEEE, symObjAddr: 0xFA00, symBinAddr: 0x1F7E0, symSize: 0xB0 }
  - { offsetInCU: 0x3590, offset: 0x93AF8, size: 0x8, addend: 0x0, symName: __ZN10ClipperLib15SimplifyPolygonERKNSt3__16vectorINS_8IntPointENS0_9allocatorIS2_EEEERNS1_IS5_NS3_IS5_EEEENS_12PolyFillTypeE, symObjAddr: 0xFAB0, symBinAddr: 0x1F890, symSize: 0x2A0 }
  - { offsetInCU: 0x4497, offset: 0x949FF, size: 0x8, addend: 0x0, symName: __ZN10ClipperLib16SimplifyPolygonsERKNSt3__16vectorINS1_INS_8IntPointENS0_9allocatorIS2_EEEENS3_IS5_EEEERS7_NS_12PolyFillTypeE, symObjAddr: 0xFD50, symBinAddr: 0x1FB30, symSize: 0x320 }
  - { offsetInCU: 0x53A2, offset: 0x9590A, size: 0x8, addend: 0x0, symName: __ZN10ClipperLib16SimplifyPolygonsERNSt3__16vectorINS1_INS_8IntPointENS0_9allocatorIS2_EEEENS3_IS5_EEEENS_12PolyFillTypeE, symObjAddr: 0x10070, symBinAddr: 0x1FE50, symSize: 0x10 }
  - { offsetInCU: 0x5400, offset: 0x95968, size: 0x8, addend: 0x0, symName: __ZN10ClipperLib20DistanceFromLineSqrdERKNS_8IntPointES2_S2_, symObjAddr: 0x10080, symBinAddr: 0x1FE60, symSize: 0x70 }
  - { offsetInCU: 0x549F, offset: 0x95A07, size: 0x8, addend: 0x0, symName: __ZN10ClipperLib19SlopesNearCollinearERKNS_8IntPointES2_S2_d, symObjAddr: 0x100F0, symBinAddr: 0x1FED0, symSize: 0x210 }
  - { offsetInCU: 0x5679, offset: 0x95BE1, size: 0x8, addend: 0x0, symName: __ZN10ClipperLib14PointsAreCloseENS_8IntPointES0_d, symObjAddr: 0x10300, symBinAddr: 0x200E0, symSize: 0x40 }
  - { offsetInCU: 0x56B9, offset: 0x95C21, size: 0x8, addend: 0x0, symName: __ZN10ClipperLib9ExcludeOpEPNS_5OutPtE, symObjAddr: 0x10340, symBinAddr: 0x20120, symSize: 0x20 }
  - { offsetInCU: 0x5756, offset: 0x95CBE, size: 0x8, addend: 0x0, symName: __ZN10ClipperLib12CleanPolygonERKNSt3__16vectorINS_8IntPointENS0_9allocatorIS2_EEEERS5_d, symObjAddr: 0x10360, symBinAddr: 0x20140, symSize: 0x330 }
  - { offsetInCU: 0x5B47, offset: 0x960AF, size: 0x8, addend: 0x0, symName: __ZN10ClipperLib12CleanPolygonERNSt3__16vectorINS_8IntPointENS0_9allocatorIS2_EEEEd, symObjAddr: 0x10690, symBinAddr: 0x20470, symSize: 0x10 }
  - { offsetInCU: 0x5BA4, offset: 0x9610C, size: 0x8, addend: 0x0, symName: __ZN10ClipperLib13CleanPolygonsERKNSt3__16vectorINS1_INS_8IntPointENS0_9allocatorIS2_EEEENS3_IS5_EEEERS7_d, symObjAddr: 0x106A0, symBinAddr: 0x20480, symSize: 0xE0 }
  - { offsetInCU: 0x5EC7, offset: 0x9642F, size: 0x8, addend: 0x0, symName: __ZN10ClipperLib13CleanPolygonsERNSt3__16vectorINS1_INS_8IntPointENS0_9allocatorIS2_EEEENS3_IS5_EEEEd, symObjAddr: 0x10780, symBinAddr: 0x20560, symSize: 0x10 }
  - { offsetInCU: 0x5F24, offset: 0x9648C, size: 0x8, addend: 0x0, symName: __ZN10ClipperLib9MinkowskiERKNSt3__16vectorINS_8IntPointENS0_9allocatorIS2_EEEES7_RNS1_IS5_NS3_IS5_EEEEbb, symObjAddr: 0x10790, symBinAddr: 0x20570, symSize: 0xD20 }
  - { offsetInCU: 0x98EF, offset: 0x99E57, size: 0x8, addend: 0x0, symName: __ZN10ClipperLib12MinkowskiSumERKNSt3__16vectorINS_8IntPointENS0_9allocatorIS2_EEEES7_RNS1_IS5_NS3_IS5_EEEEb, symObjAddr: 0x114B0, symBinAddr: 0x21290, symSize: 0x320 }
  - { offsetInCU: 0xA80B, offset: 0x9AD73, size: 0x8, addend: 0x0, symName: __ZN10ClipperLib13TranslatePathERKNSt3__16vectorINS_8IntPointENS0_9allocatorIS2_EEEERS5_S2_, symObjAddr: 0x117D0, symBinAddr: 0x215B0, symSize: 0xB0 }
  - { offsetInCU: 0xA98C, offset: 0x9AEF4, size: 0x8, addend: 0x0, symName: __ZN10ClipperLib12MinkowskiSumERKNSt3__16vectorINS_8IntPointENS0_9allocatorIS2_EEEERKNS1_IS5_NS3_IS5_EEEERS9_b, symObjAddr: 0x11880, symBinAddr: 0x21660, symSize: 0x560 }
  - { offsetInCU: 0xC09B, offset: 0x9C603, size: 0x8, addend: 0x0, symName: __ZN10ClipperLib13MinkowskiDiffERKNSt3__16vectorINS_8IntPointENS0_9allocatorIS2_EEEES7_RNS1_IS5_NS3_IS5_EEEE, symObjAddr: 0x11DE0, symBinAddr: 0x21BC0, symSize: 0x320 }
  - { offsetInCU: 0xCFA5, offset: 0x9D50D, size: 0x8, addend: 0x0, symName: __ZN10ClipperLib18AddPolyNodeToPathsERKNS_8PolyNodeENS_8NodeTypeERNSt3__16vectorINS5_INS_8IntPointENS4_9allocatorIS6_EEEENS7_IS9_EEEE, symObjAddr: 0x12100, symBinAddr: 0x21EE0, symSize: 0x170 }
  - { offsetInCU: 0xD5D2, offset: 0x9DB3A, size: 0x8, addend: 0x0, symName: __ZN10ClipperLib15PolyTreeToPathsERKNS_8PolyTreeERNSt3__16vectorINS4_INS_8IntPointENS3_9allocatorIS5_EEEENS6_IS8_EEEE, symObjAddr: 0x12270, symBinAddr: 0x22050, symSize: 0x90 }
  - { offsetInCU: 0xD8CC, offset: 0x9DE34, size: 0x8, addend: 0x0, symName: __ZN10ClipperLib23ClosedPathsFromPolyTreeERKNS_8PolyTreeERNSt3__16vectorINS4_INS_8IntPointENS3_9allocatorIS5_EEEENS6_IS8_EEEE, symObjAddr: 0x12300, symBinAddr: 0x220E0, symSize: 0x90 }
  - { offsetInCU: 0xDBC6, offset: 0x9E12E, size: 0x8, addend: 0x0, symName: __ZN10ClipperLib21OpenPathsFromPolyTreeERNS_8PolyTreeERNSt3__16vectorINS3_INS_8IntPointENS2_9allocatorIS4_EEEENS5_IS7_EEEE, symObjAddr: 0x12390, symBinAddr: 0x22170, symSize: 0x1A0 }
  - { offsetInCU: 0xE42F, offset: 0x9E997, size: 0x8, addend: 0x0, symName: __ZN10ClipperLiblsERNSt3__113basic_ostreamIcNS0_11char_traitsIcEEEERKNS_8IntPointE, symObjAddr: 0x12530, symBinAddr: 0x22310, symSize: 0x70 }
  - { offsetInCU: 0xE520, offset: 0x9EA88, size: 0x8, addend: 0x0, symName: __ZN10ClipperLiblsERNSt3__113basic_ostreamIcNS0_11char_traitsIcEEEERKNS0_6vectorINS_8IntPointENS0_9allocatorIS7_EEEE, symObjAddr: 0x125A0, symBinAddr: 0x22380, symSize: 0x130 }
  - { offsetInCU: 0xE7A9, offset: 0x9ED11, size: 0x8, addend: 0x0, symName: __ZN10ClipperLiblsERNSt3__113basic_ostreamIcNS0_11char_traitsIcEEEERKNS0_6vectorINS6_INS_8IntPointENS0_9allocatorIS7_EEEENS8_ISA_EEEE, symObjAddr: 0x126D0, symBinAddr: 0x224B0, symSize: 0x80 }
  - { offsetInCU: 0x1D4D2, offset: 0xADA3A, size: 0x8, addend: 0x0, symName: __ZNSt3__111__introsortINS_17_ClassicAlgPolicyERN10ClipperLib12LocMinSorterEPNS2_12LocalMinimumELb0EEEvT1_S7_T0_NS_15iterator_traitsIS7_E15difference_typeEb, symObjAddr: 0x12DC0, symBinAddr: 0x22AC0, symSize: 0xDB0 }
  - { offsetInCU: 0x1F019, offset: 0xAF581, size: 0x8, addend: 0x0, symName: __ZNSt3__127__insertion_sort_incompleteB8ue170006INS_17_ClassicAlgPolicyERN10ClipperLib12LocMinSorterEPNS2_12LocalMinimumEEEbT1_S7_T0_, symObjAddr: 0x13B70, symBinAddr: 0x23870, symSize: 0x500 }
  - { offsetInCU: 0x21C65, offset: 0xB21CD, size: 0x8, addend: 0x0, symName: __ZNSt3__111__introsortINS_17_ClassicAlgPolicyERPFbPN10ClipperLib13IntersectNodeES4_EPS4_Lb0EEEvT1_S9_T0_NS_15iterator_traitsIS9_E15difference_typeEb, symObjAddr: 0x14A50, symBinAddr: 0x24750, symSize: 0x990 }
  - { offsetInCU: 0x23246, offset: 0xB37AE, size: 0x8, addend: 0x0, symName: __ZNSt3__127__insertion_sort_incompleteB8ue170006INS_17_ClassicAlgPolicyERPFbPN10ClipperLib13IntersectNodeES4_EPS4_EEbT1_S9_T0_, symObjAddr: 0x153E0, symBinAddr: 0x250E0, symSize: 0x380 }
  - { offsetInCU: 0x251D6, offset: 0xB573E, size: 0x8, addend: 0x0, symName: __ZNSt3__124__put_character_sequenceB8ue170006IcNS_11char_traitsIcEEEERNS_13basic_ostreamIT_T0_EES7_PKS4_m, symObjAddr: 0x16180, symBinAddr: 0x25BD0, symSize: 0x150 }
  - { offsetInCU: 0x2AD92, offset: 0xBB2FA, size: 0x8, addend: 0x0, symName: __ZNSt3__17__sort5B8ue170006INS_17_ClassicAlgPolicyERN10ClipperLib12LocMinSorterEPNS2_12LocalMinimumEEEvT1_S7_S7_S7_S7_T0_, symObjAddr: 0x14070, symBinAddr: 0x23D70, symSize: 0x290 }
  - { offsetInCU: 0x2B479, offset: 0xBB9E1, size: 0x8, addend: 0x0, symName: __ZNSt3__119__partial_sort_implB8ue170006INS_17_ClassicAlgPolicyERN10ClipperLib12LocMinSorterEPNS2_12LocalMinimumES6_EET1_S7_S7_T2_OT0_, symObjAddr: 0x14300, symBinAddr: 0x24000, symSize: 0x4E0 }
  - { offsetInCU: 0x2C111, offset: 0xBC679, size: 0x8, addend: 0x0, symName: __ZNSt3__17__sort4B8ue170006INS_17_ClassicAlgPolicyERPFbPN10ClipperLib13IntersectNodeES4_EPS4_EEvT1_S9_S9_S9_T0_, symObjAddr: 0x15760, symBinAddr: 0x25460, symSize: 0x120 }
  - { offsetInCU: 0x2C53C, offset: 0xBCAA4, size: 0x8, addend: 0x0, symName: __ZNSt3__119__partial_sort_implB8ue170006INS_17_ClassicAlgPolicyERPFbPN10ClipperLib13IntersectNodeES4_EPS4_S8_EET1_S9_S9_T2_OT0_, symObjAddr: 0x15880, symBinAddr: 0x25580, symSize: 0x480 }
  - { offsetInCU: 0x2D29B, offset: 0xBD803, size: 0x8, addend: 0x0, symName: __ZNSt3__116__pad_and_outputB8ue170006IcNS_11char_traitsIcEEEENS_19ostreambuf_iteratorIT_T0_EES6_PKS4_S8_S8_RNS_8ios_baseES4_, symObjAddr: 0x162D0, symBinAddr: 0x25D20, symSize: 0x145 }
  - { offsetInCU: 0x30F90, offset: 0xC14F8, size: 0x8, addend: 0x0, symName: __ZN10ClipperLib8PolyTree5ClearEv, symObjAddr: 0x0, symBinAddr: 0xFF30, symSize: 0x70 }
  - { offsetInCU: 0x31101, offset: 0xC1669, size: 0x8, addend: 0x0, symName: __ZNK10ClipperLib8PolyTree8GetFirstEv, symObjAddr: 0x70, symBinAddr: 0xFFA0, symSize: 0x20 }
  - { offsetInCU: 0x3116A, offset: 0xC16D2, size: 0x8, addend: 0x0, symName: __ZNK10ClipperLib8PolyTree5TotalEv, symObjAddr: 0x90, symBinAddr: 0xFFC0, symSize: 0x30 }
  - { offsetInCU: 0x3120A, offset: 0xC1772, size: 0x8, addend: 0x0, symName: __ZN10ClipperLib8PolyNodeC2Ev, symObjAddr: 0xC0, symBinAddr: 0xFFF0, symSize: 0x30 }
  - { offsetInCU: 0x31283, offset: 0xC17EB, size: 0x8, addend: 0x0, symName: __ZN10ClipperLib8PolyNodeC1Ev, symObjAddr: 0xF0, symBinAddr: 0x10020, symSize: 0x30 }
  - { offsetInCU: 0x312FC, offset: 0xC1864, size: 0x8, addend: 0x0, symName: __ZNK10ClipperLib8PolyNode10ChildCountEv, symObjAddr: 0x120, symBinAddr: 0x10050, symSize: 0x20 }
  - { offsetInCU: 0x31742, offset: 0xC1CAA, size: 0x8, addend: 0x0, symName: __ZN10ClipperLib8PolyNode8AddChildERS0_, symObjAddr: 0x140, symBinAddr: 0x10070, symSize: 0x130 }
  - { offsetInCU: 0x31C8D, offset: 0xC21F5, size: 0x8, addend: 0x0, symName: __ZNKSt3__16vectorIPN10ClipperLib8PolyNodeENS_9allocatorIS3_EEE20__throw_length_errorB8ue170006Ev, symObjAddr: 0x12D90, symBinAddr: 0x22A90, symSize: 0x10 }
  - { offsetInCU: 0x31CB6, offset: 0xC221E, size: 0x8, addend: 0x0, symName: __ZNKSt3__16vectorIN10ClipperLib12LocalMinimumENS_9allocatorIS2_EEE20__throw_length_errorB8ue170006Ev, symObjAddr: 0x12DA0, symBinAddr: 0x22AA0, symSize: 0x10 }
  - { offsetInCU: 0x31D03, offset: 0xC226B, size: 0x8, addend: 0x0, symName: __ZNK10ClipperLib8PolyNode7GetNextEv, symObjAddr: 0x270, symBinAddr: 0x101A0, symSize: 0x50 }
  - { offsetInCU: 0x31DA7, offset: 0xC230F, size: 0x8, addend: 0x0, symName: __ZNK10ClipperLib8PolyNode16GetNextSiblingUpEv, symObjAddr: 0x2C0, symBinAddr: 0x101F0, symSize: 0x40 }
  - { offsetInCU: 0x31DE7, offset: 0xC234F, size: 0x8, addend: 0x0, symName: __ZNK10ClipperLib8PolyNode6IsHoleEv, symObjAddr: 0x300, symBinAddr: 0x10230, symSize: 0x30 }
  - { offsetInCU: 0x31E2A, offset: 0xC2392, size: 0x8, addend: 0x0, symName: __ZNK10ClipperLib8PolyNode6IsOpenEv, symObjAddr: 0x330, symBinAddr: 0x10260, symSize: 0x10 }
  - { offsetInCU: 0x320A5, offset: 0xC260D, size: 0x8, addend: 0x0, symName: __ZN10ClipperLib11ClipperBaseC2Ev, symObjAddr: 0x1680, symBinAddr: 0x115B0, symSize: 0x50 }
  - { offsetInCU: 0x32224, offset: 0xC278C, size: 0x8, addend: 0x0, symName: __ZN10ClipperLib11ClipperBaseC1Ev, symObjAddr: 0x16D0, symBinAddr: 0x11600, symSize: 0x50 }
  - { offsetInCU: 0x32875, offset: 0xC2DDD, size: 0x8, addend: 0x0, symName: __ZN10ClipperLib11ClipperBaseD2Ev, symObjAddr: 0x1720, symBinAddr: 0x11650, symSize: 0xD0 }
  - { offsetInCU: 0x32F0C, offset: 0xC3474, size: 0x8, addend: 0x0, symName: __ZN10ClipperLib11ClipperBaseD1Ev, symObjAddr: 0x1800, symBinAddr: 0x11720, symSize: 0x10 }
  - { offsetInCU: 0x32F5F, offset: 0xC34C7, size: 0x8, addend: 0x0, symName: __ZN10ClipperLib11ClipperBaseD0Ev, symObjAddr: 0x1810, symBinAddr: 0x11730, symSize: 0x20 }
  - { offsetInCU: 0x32FBF, offset: 0xC3527, size: 0x8, addend: 0x0, symName: __ZN10ClipperLib16clipperExceptionC1EPKc, symObjAddr: 0x1900, symBinAddr: 0x11820, symSize: 0xB0 }
  - { offsetInCU: 0x3372F, offset: 0xC3C97, size: 0x8, addend: 0x0, symName: __ZN10ClipperLib16clipperExceptionD1Ev, symObjAddr: 0x19B0, symBinAddr: 0x118D0, symSize: 0x40 }
  - { offsetInCU: 0x33C05, offset: 0xC416D, size: 0x8, addend: 0x0, symName: __ZN10ClipperLib11ClipperBase12ProcessBoundEPNS_5TEdgeEb, symObjAddr: 0x1AC0, symBinAddr: 0x119E0, symSize: 0x4F0 }
  - { offsetInCU: 0x3443C, offset: 0xC49A4, size: 0x8, addend: 0x0, symName: __ZNKSt3__16vectorIN10ClipperLib12LocalMinimumENS_9allocatorIS2_EEE20__throw_length_errorB8ue170006Ev, symObjAddr: 0x12DA0, symBinAddr: 0x22AA0, symSize: 0x10 }
  - { offsetInCU: 0x34465, offset: 0xC49CD, size: 0x8, addend: 0x0, symName: __ZNKSt3__16vectorIPN10ClipperLib5TEdgeENS_9allocatorIS3_EEE20__throw_length_errorB8ue170006Ev, symObjAddr: 0x12DB0, symBinAddr: 0x22AB0, symSize: 0x10 }
  - { offsetInCU: 0x34891, offset: 0xC4DF9, size: 0x8, addend: 0x0, symName: __ZN10ClipperLib11ClipperBase7AddPathERKNSt3__16vectorINS_8IntPointENS1_9allocatorIS3_EEEENS_8PolyTypeEb, symObjAddr: 0x1FB0, symBinAddr: 0x11ED0, symSize: 0xE40 }
  - { offsetInCU: 0x363B5, offset: 0xC691D, size: 0x8, addend: 0x0, symName: __ZNKSt3__16vectorIPN10ClipperLib5TEdgeENS_9allocatorIS3_EEE20__throw_length_errorB8ue170006Ev, symObjAddr: 0x12DB0, symBinAddr: 0x22AB0, symSize: 0x10 }
  - { offsetInCU: 0x363DE, offset: 0xC6946, size: 0x8, addend: 0x0, symName: __ZNSt3__111__introsortINS_17_ClassicAlgPolicyERN10ClipperLib12LocMinSorterEPNS2_12LocalMinimumELb0EEEvT1_S7_T0_NS_15iterator_traitsIS7_E15difference_typeEb, symObjAddr: 0x12DC0, symBinAddr: 0x22AC0, symSize: 0xDB0 }
  - { offsetInCU: 0x36405, offset: 0xC696D, size: 0x8, addend: 0x0, symName: __ZN10ClipperLib11ClipperBase8AddPathsERKNSt3__16vectorINS2_INS_8IntPointENS1_9allocatorIS3_EEEENS4_IS6_EEEENS_8PolyTypeEb, symObjAddr: 0x2DF0, symBinAddr: 0x12D10, symSize: 0xB0 }
  - { offsetInCU: 0x36499, offset: 0xC6A01, size: 0x8, addend: 0x0, symName: __ZN10ClipperLib11ClipperBase5ClearEv, symObjAddr: 0x2EA0, symBinAddr: 0x12DC0, symSize: 0x70 }
  - { offsetInCU: 0x365DB, offset: 0xC6B43, size: 0x8, addend: 0x0, symName: __ZN10ClipperLib11ClipperBase22DisposeLocalMinimaListEv, symObjAddr: 0x2F10, symBinAddr: 0x12E30, symSize: 0x20 }
  - { offsetInCU: 0x36797, offset: 0xC6CFF, size: 0x8, addend: 0x0, symName: __ZN10ClipperLib11ClipperBase5ResetEv, symObjAddr: 0x2F30, symBinAddr: 0x12E50, symSize: 0x120 }
  - { offsetInCU: 0x36B37, offset: 0xC709F, size: 0x8, addend: 0x0, symName: __ZNSt3__114priority_queueIxNS_6vectorIxNS_9allocatorIxEEEENS_4lessIxEEE4pushERKx, symObjAddr: 0x31B0, symBinAddr: 0x130D0, symSize: 0x170 }
  - { offsetInCU: 0x3720F, offset: 0xC7777, size: 0x8, addend: 0x0, symName: __ZN10ClipperLib11ClipperBase14InsertScanbeamEx, symObjAddr: 0x3050, symBinAddr: 0x12F70, symSize: 0x20 }
  - { offsetInCU: 0x37286, offset: 0xC77EE, size: 0x8, addend: 0x0, symName: __ZN10ClipperLib11ClipperBase14PopLocalMinimaExRPKNS_12LocalMinimumE, symObjAddr: 0x3070, symBinAddr: 0x12F90, symSize: 0x30 }
  - { offsetInCU: 0x37355, offset: 0xC78BD, size: 0x8, addend: 0x0, symName: __ZN10ClipperLib11ClipperBase9GetBoundsEv, symObjAddr: 0x30A0, symBinAddr: 0x12FC0, symSize: 0x110 }
  - { offsetInCU: 0x37B07, offset: 0xC806F, size: 0x8, addend: 0x0, symName: __ZNKSt3__16vectorIxNS_9allocatorIxEEE20__throw_length_errorB8ue170006Ev, symObjAddr: 0x147E0, symBinAddr: 0x244E0, symSize: 0x10 }
  - { offsetInCU: 0x37B30, offset: 0xC8098, size: 0x8, addend: 0x0, symName: __ZNKSt3__16vectorIPN10ClipperLib6OutRecENS_9allocatorIS3_EEE20__throw_length_errorB8ue170006Ev, symObjAddr: 0x147F0, symBinAddr: 0x244F0, symSize: 0x10 }
  - { offsetInCU: 0x37B9B, offset: 0xC8103, size: 0x8, addend: 0x0, symName: __ZN10ClipperLib11ClipperBase11PopScanbeamERx, symObjAddr: 0x3320, symBinAddr: 0x13240, symSize: 0x260 }
  - { offsetInCU: 0x38147, offset: 0xC86AF, size: 0x8, addend: 0x0, symName: __ZN10ClipperLib11ClipperBase17DisposeAllOutRecsEv, symObjAddr: 0x3580, symBinAddr: 0x134A0, symSize: 0xB0 }
  - { offsetInCU: 0x38254, offset: 0xC87BC, size: 0x8, addend: 0x0, symName: __ZN10ClipperLib11ClipperBase13DisposeOutRecEm, symObjAddr: 0x3630, symBinAddr: 0x13550, symSize: 0x80 }
  - { offsetInCU: 0x382F7, offset: 0xC885F, size: 0x8, addend: 0x0, symName: __ZN10ClipperLib11ClipperBase13DeleteFromAELEPNS_5TEdgeE, symObjAddr: 0x36B0, symBinAddr: 0x135D0, symSize: 0x50 }
  - { offsetInCU: 0x386B7, offset: 0xC8C1F, size: 0x8, addend: 0x0, symName: __ZN10ClipperLib11ClipperBase12CreateOutRecEv, symObjAddr: 0x3700, symBinAddr: 0x13620, symSize: 0x160 }
  - { offsetInCU: 0x38C48, offset: 0xC91B0, size: 0x8, addend: 0x0, symName: __ZNKSt3__16vectorIPN10ClipperLib6OutRecENS_9allocatorIS3_EEE20__throw_length_errorB8ue170006Ev, symObjAddr: 0x147F0, symBinAddr: 0x244F0, symSize: 0x10 }
  - { offsetInCU: 0x38C71, offset: 0xC91D9, size: 0x8, addend: 0x0, symName: __ZNSt3__16vectorINS0_IN10ClipperLib8IntPointENS_9allocatorIS2_EEEENS3_IS5_EEE8__appendEm, symObjAddr: 0x14800, symBinAddr: 0x24500, symSize: 0x230 }
  - { offsetInCU: 0x38C7C, offset: 0xC91E4, size: 0x8, addend: 0x0, symName: __ZN10ClipperLib11ClipperBase18SwapPositionsInAELEPNS_5TEdgeES2_, symObjAddr: 0x3860, symBinAddr: 0x13780, symSize: 0xF0 }
  - { offsetInCU: 0x38D04, offset: 0xC926C, size: 0x8, addend: 0x0, symName: __ZN10ClipperLib11ClipperBase17UpdateEdgeIntoAELERPNS_5TEdgeE, symObjAddr: 0x3950, symBinAddr: 0x13870, symSize: 0xF0 }
  - { offsetInCU: 0x38DC4, offset: 0xC932C, size: 0x8, addend: 0x0, symName: __ZN10ClipperLib11ClipperBase18LocalMinimaPendingEv, symObjAddr: 0x3A40, symBinAddr: 0x13960, symSize: 0x20 }
  - { offsetInCU: 0x38FF6, offset: 0xC955E, size: 0x8, addend: 0x0, symName: __ZN10ClipperLib7ClipperC2Ei, symObjAddr: 0x3A60, symBinAddr: 0x13980, symSize: 0x90 }
  - { offsetInCU: 0x3916B, offset: 0xC96D3, size: 0x8, addend: 0x0, symName: __ZN10ClipperLib7ClipperC1Ei, symObjAddr: 0x3AF0, symBinAddr: 0x13A10, symSize: 0xD0 }
  - { offsetInCU: 0x39425, offset: 0xC998D, size: 0x8, addend: 0x0, symName: __ZN10ClipperLib7Clipper7ExecuteENS_8ClipTypeERNSt3__16vectorINS3_INS_8IntPointENS2_9allocatorIS4_EEEENS5_IS7_EEEENS_12PolyFillTypeE, symObjAddr: 0x3BC0, symBinAddr: 0x13AE0, symSize: 0x10 }
  - { offsetInCU: 0x394AC, offset: 0xC9A14, size: 0x8, addend: 0x0, symName: __ZN10ClipperLib7Clipper7ExecuteENS_8ClipTypeERNSt3__16vectorINS3_INS_8IntPointENS2_9allocatorIS4_EEEENS5_IS7_EEEENS_12PolyFillTypeESB_, symObjAddr: 0x3BD0, symBinAddr: 0x13AF0, symSize: 0x1A0 }
  - { offsetInCU: 0x39A6E, offset: 0xC9FD6, size: 0x8, addend: 0x0, symName: __ZN10ClipperLib7Clipper11BuildResultERNSt3__16vectorINS2_INS_8IntPointENS1_9allocatorIS3_EEEENS4_IS6_EEEE, symObjAddr: 0x3E80, symBinAddr: 0x13DA0, symSize: 0x350 }
  - { offsetInCU: 0x3AB07, offset: 0xCB06F, size: 0x8, addend: 0x0, symName: __ZN10ClipperLib7Clipper7ExecuteENS_8ClipTypeERNS_8PolyTreeENS_12PolyFillTypeE, symObjAddr: 0x3D70, symBinAddr: 0x13C90, symSize: 0x10 }
  - { offsetInCU: 0x3AB8E, offset: 0xCB0F6, size: 0x8, addend: 0x0, symName: __ZN10ClipperLib7Clipper7ExecuteENS_8ClipTypeERNS_8PolyTreeENS_12PolyFillTypeES4_, symObjAddr: 0x3D80, symBinAddr: 0x13CA0, symSize: 0x100 }
  - { offsetInCU: 0x3AD19, offset: 0xCB281, size: 0x8, addend: 0x0, symName: __ZN10ClipperLib7Clipper12BuildResult2ERNS_8PolyTreeE, symObjAddr: 0x41D0, symBinAddr: 0x140F0, symSize: 0x680 }
  - { offsetInCU: 0x3CBB1, offset: 0xCD119, size: 0x8, addend: 0x0, symName: __ZNSt3__16vectorINS0_IN10ClipperLib8IntPointENS_9allocatorIS2_EEEENS3_IS5_EEE7reserveEm, symObjAddr: 0x9F00, symBinAddr: 0x19E20, symSize: 0x130 }
  - { offsetInCU: 0x3D167, offset: 0xCD6CF, size: 0x8, addend: 0x0, symName: __ZNSt3__16vectorINS0_IN10ClipperLib8IntPointENS_9allocatorIS2_EEEENS3_IS5_EEE21__push_back_slow_pathIRKS5_EEvOT_, symObjAddr: 0x12AB0, symBinAddr: 0x227B0, symSize: 0x270 }
  - { offsetInCU: 0x3DD1A, offset: 0xCE282, size: 0x8, addend: 0x0, symName: __ZNSt3__16vectorINS0_IN10ClipperLib8IntPointENS_9allocatorIS2_EEEENS3_IS5_EEE21__push_back_slow_pathIRKS5_EEvOT_, symObjAddr: 0x12AB0, symBinAddr: 0x227B0, symSize: 0x270 }
  - { offsetInCU: 0x3DF1A, offset: 0xCE482, size: 0x8, addend: 0x0, symName: __ZN10ClipperLib7Clipper14FixHoleLinkageERNS_6OutRecE, symObjAddr: 0x4850, symBinAddr: 0x14770, symSize: 0x50 }
  - { offsetInCU: 0x3E32F, offset: 0xCE897, size: 0x8, addend: 0x0, symName: __ZN10ClipperLib7Clipper15ExecuteInternalEv, symObjAddr: 0x48A0, symBinAddr: 0x147C0, symSize: 0x510 }
  - { offsetInCU: 0x3EC97, offset: 0xCF1FF, size: 0x8, addend: 0x0, symName: __ZN10ClipperLib7Clipper24InsertLocalMinimaIntoAELEx, symObjAddr: 0x4DB0, symBinAddr: 0x14CD0, symSize: 0x4D0 }
  - { offsetInCU: 0x3F1A0, offset: 0xCF708, size: 0x8, addend: 0x0, symName: __ZN10ClipperLib7Clipper17ProcessHorizontalEPNS_5TEdgeE, symObjAddr: 0x8080, symBinAddr: 0x17FA0, symSize: 0xF70 }
  - { offsetInCU: 0x40741, offset: 0xD0CA9, size: 0x8, addend: 0x0, symName: __ZN10ClipperLib7Clipper20ProcessIntersectionsEx, symObjAddr: 0x5360, symBinAddr: 0x15280, symSize: 0xE0 }
  - { offsetInCU: 0x40806, offset: 0xD0D6E, size: 0x8, addend: 0x0, symName: __ZN10ClipperLib7Clipper27ProcessEdgesAtTopOfScanbeamEx, symObjAddr: 0x5440, symBinAddr: 0x15360, symSize: 0x590 }
  - { offsetInCU: 0x40FC9, offset: 0xD1531, size: 0x8, addend: 0x0, symName: __ZN10ClipperLib7Clipper15JoinCommonEdgesEv, symObjAddr: 0x59D0, symBinAddr: 0x158F0, symSize: 0x4B0 }
  - { offsetInCU: 0x413E7, offset: 0xD194F, size: 0x8, addend: 0x0, symName: __ZN10ClipperLib7Clipper15FixupOutPolygonERNS_6OutRecE, symObjAddr: 0x5F40, symBinAddr: 0x15E60, symSize: 0x2B0 }
  - { offsetInCU: 0x41533, offset: 0xD1A9B, size: 0x8, addend: 0x0, symName: __ZN10ClipperLib7Clipper16DoSimplePolygonsEv, symObjAddr: 0x61F0, symBinAddr: 0x16110, symSize: 0x770 }
  - { offsetInCU: 0x41D8F, offset: 0xD22F7, size: 0x8, addend: 0x0, symName: __ZN10ClipperLib7Clipper17InsertEdgeIntoAELEPNS_5TEdgeES2_, symObjAddr: 0x7680, symBinAddr: 0x175A0, symSize: 0x220 }
  - { offsetInCU: 0x41F28, offset: 0xD2490, size: 0x8, addend: 0x0, symName: __ZN10ClipperLib7Clipper15SetWindingCountERNS_5TEdgeE, symObjAddr: 0x69C0, symBinAddr: 0x168E0, symSize: 0x1C0 }
  - { offsetInCU: 0x4202C, offset: 0xD2594, size: 0x8, addend: 0x0, symName: __ZNK10ClipperLib7Clipper14IsContributingERKNS_5TEdgeE, symObjAddr: 0x6BC0, symBinAddr: 0x16AE0, symSize: 0xE0 }
  - { offsetInCU: 0x420B6, offset: 0xD261E, size: 0x8, addend: 0x0, symName: __ZN10ClipperLib7Clipper15AddLocalMinPolyEPNS_5TEdgeES2_RKNS_8IntPointE, symObjAddr: 0x6CA0, symBinAddr: 0x16BC0, symSize: 0x200 }
  - { offsetInCU: 0x422AE, offset: 0xD2816, size: 0x8, addend: 0x0, symName: __ZN10ClipperLib7Clipper8AddOutPtEPNS_5TEdgeERKNS_8IntPointE, symObjAddr: 0x6EA0, symBinAddr: 0x16DC0, symSize: 0x180 }
  - { offsetInCU: 0x423EE, offset: 0xD2956, size: 0x8, addend: 0x0, symName: __ZN10ClipperLib7Clipper7AddJoinEPNS_5OutPtES2_NS_8IntPointE, symObjAddr: 0x7020, symBinAddr: 0x16F40, symSize: 0x150 }
  - { offsetInCU: 0x42937, offset: 0xD2E9F, size: 0x8, addend: 0x0, symName: __ZN10ClipperLib7Clipper14IntersectEdgesEPNS_5TEdgeES2_RNS_8IntPointE, symObjAddr: 0x78A0, symBinAddr: 0x177C0, symSize: 0x4A0 }
  - { offsetInCU: 0x42C90, offset: 0xD31F8, size: 0x8, addend: 0x0, symName: __ZN10ClipperLib7Clipper18ProcessHorizontalsEv, symObjAddr: 0x5280, symBinAddr: 0x151A0, symSize: 0x80 }
  - { offsetInCU: 0x42D12, offset: 0xD327A, size: 0x8, addend: 0x0, symName: __ZN10ClipperLib7Clipper15ClearGhostJoinsEv, symObjAddr: 0x5300, symBinAddr: 0x15220, symSize: 0x60 }
  - { offsetInCU: 0x42DEC, offset: 0xD3354, size: 0x8, addend: 0x0, symName: __ZN10ClipperLib7Clipper18BuildIntersectListEx, symObjAddr: 0x9240, symBinAddr: 0x19160, symSize: 0x440 }
  - { offsetInCU: 0x43508, offset: 0xD3A70, size: 0x8, addend: 0x0, symName: __ZN10ClipperLib7Clipper22FixupIntersectionOrderEv, symObjAddr: 0x9680, symBinAddr: 0x195A0, symSize: 0x1B0 }
  - { offsetInCU: 0x4375C, offset: 0xD3CC4, size: 0x8, addend: 0x0, symName: __ZN10ClipperLib7Clipper20ProcessIntersectListEv, symObjAddr: 0x9830, symBinAddr: 0x19750, symSize: 0x180 }
  - { offsetInCU: 0x438BA, offset: 0xD3E22, size: 0x8, addend: 0x0, symName: __ZN10ClipperLib7Clipper21DisposeIntersectNodesEv, symObjAddr: 0x99B0, symBinAddr: 0x198D0, symSize: 0x60 }
  - { offsetInCU: 0x43B34, offset: 0xD409C, size: 0x8, addend: 0x0, symName: __ZN10ClipperLib7Clipper8DoMaximaEPNS_5TEdgeE, symObjAddr: 0x9A30, symBinAddr: 0x19950, symSize: 0x4B0 }
  - { offsetInCU: 0x43EC7, offset: 0xD442F, size: 0x8, addend: 0x0, symName: __ZNSt3__14listIxNS_9allocatorIxEEE6__sortINS_6__lessIvvEEEENS_15__list_iteratorIxPvEES9_S9_mRT_, symObjAddr: 0x15D00, symBinAddr: 0x25A00, symSize: 0x1C0 }
  - { offsetInCU: 0x4456E, offset: 0xD4AD6, size: 0x8, addend: 0x0, symName: __ZN10ClipperLib7Clipper10JoinPointsEPNS_4JoinEPNS_6OutRecES4_, symObjAddr: 0xA650, symBinAddr: 0x1A570, symSize: 0x690 }
  - { offsetInCU: 0x44A12, offset: 0xD4F7A, size: 0x8, addend: 0x0, symName: __ZN10ClipperLib7Clipper16FixupFirstLefts2EPNS_6OutRecES2_, symObjAddr: 0xAEF0, symBinAddr: 0x1AE10, symSize: 0x3B0 }
  - { offsetInCU: 0x44BC4, offset: 0xD512C, size: 0x8, addend: 0x0, symName: __ZN10ClipperLib7Clipper16FixupFirstLefts1EPNS_6OutRecES2_, symObjAddr: 0xACE0, symBinAddr: 0x1AC00, symSize: 0x210 }
  - { offsetInCU: 0x44CC1, offset: 0xD5229, size: 0x8, addend: 0x0, symName: __ZN10ClipperLib7Clipper16FixupOutPolylineERNS_6OutRecE, symObjAddr: 0x5E80, symBinAddr: 0x15DA0, symSize: 0xC0 }
  - { offsetInCU: 0x44DE6, offset: 0xD534E, size: 0x8, addend: 0x0, symName: __ZN10ClipperLib7Clipper10ClearJoinsEv, symObjAddr: 0x6960, symBinAddr: 0x16880, symSize: 0x60 }
  - { offsetInCU: 0x44EF4, offset: 0xD545C, size: 0x8, addend: 0x0, symName: __ZNK10ClipperLib7Clipper17IsEvenOddFillTypeERKNS_5TEdgeE, symObjAddr: 0x6B80, symBinAddr: 0x16AA0, symSize: 0x20 }
  - { offsetInCU: 0x44F1B, offset: 0xD5483, size: 0x8, addend: 0x0, symName: __ZNK10ClipperLib7Clipper20IsEvenOddAltFillTypeERKNS_5TEdgeE, symObjAddr: 0x6BA0, symBinAddr: 0x16AC0, symSize: 0x20 }
  - { offsetInCU: 0x4536C, offset: 0xD58D4, size: 0x8, addend: 0x0, symName: __ZNKSt3__16vectorIPN10ClipperLib4JoinENS_9allocatorIS3_EEE20__throw_length_errorB8ue170006Ev, symObjAddr: 0x14A30, symBinAddr: 0x24730, symSize: 0x10 }
  - { offsetInCU: 0x45395, offset: 0xD58FD, size: 0x8, addend: 0x0, symName: __ZNKSt3__16vectorIPN10ClipperLib13IntersectNodeENS_9allocatorIS3_EEE20__throw_length_errorB8ue170006Ev, symObjAddr: 0x14A40, symBinAddr: 0x24740, symSize: 0x10 }
  - { offsetInCU: 0x453A0, offset: 0xD5908, size: 0x8, addend: 0x0, symName: __ZN10ClipperLib7Clipper15AddLocalMaxPolyEPNS_5TEdgeES2_RKNS_8IntPointE, symObjAddr: 0x7170, symBinAddr: 0x17090, symSize: 0x80 }
  - { offsetInCU: 0x4542E, offset: 0xD5996, size: 0x8, addend: 0x0, symName: __ZN10ClipperLib7Clipper13AppendPolygonEPNS_5TEdgeES2_, symObjAddr: 0x71F0, symBinAddr: 0x17110, symSize: 0x200 }
  - { offsetInCU: 0x455E0, offset: 0xD5B48, size: 0x8, addend: 0x0, symName: __ZN10ClipperLib7Clipper12AddEdgeToSELEPNS_5TEdgeE, symObjAddr: 0x73F0, symBinAddr: 0x17310, symSize: 0x40 }
  - { offsetInCU: 0x45607, offset: 0xD5B6F, size: 0x8, addend: 0x0, symName: __ZN10ClipperLib7Clipper14PopEdgeFromSELERPNS_5TEdgeE, symObjAddr: 0x7430, symBinAddr: 0x17350, symSize: 0x60 }
  - { offsetInCU: 0x45663, offset: 0xD5BCB, size: 0x8, addend: 0x0, symName: __ZN10ClipperLib7Clipper13DeleteFromSELEPNS_5TEdgeE, symObjAddr: 0x7490, symBinAddr: 0x173B0, symSize: 0x60 }
  - { offsetInCU: 0x456A0, offset: 0xD5C08, size: 0x8, addend: 0x0, symName: __ZN10ClipperLib7Clipper12CopyAELToSELEv, symObjAddr: 0x74F0, symBinAddr: 0x17410, symSize: 0x40 }
  - { offsetInCU: 0x456C9, offset: 0xD5C31, size: 0x8, addend: 0x0, symName: __ZN10ClipperLib7Clipper12AddGhostJoinEPNS_5OutPtENS_8IntPointE, symObjAddr: 0x7530, symBinAddr: 0x17450, symSize: 0x150 }
  - { offsetInCU: 0x45C46, offset: 0xD61AE, size: 0x8, addend: 0x0, symName: __ZN10ClipperLib7Clipper12SetHoleStateEPNS_5TEdgeEPNS_6OutRecE, symObjAddr: 0x7D40, symBinAddr: 0x17C60, symSize: 0x90 }
  - { offsetInCU: 0x45CA5, offset: 0xD620D, size: 0x8, addend: 0x0, symName: __ZN10ClipperLib7Clipper9GetOutRecEi, symObjAddr: 0x8010, symBinAddr: 0x17F30, symSize: 0x40 }
  - { offsetInCU: 0x45CF2, offset: 0xD625A, size: 0x8, addend: 0x0, symName: __ZN10ClipperLib7Clipper12GetLastOutPtEPNS_5TEdgeE, symObjAddr: 0x8050, symBinAddr: 0x17F70, symSize: 0x30 }
  - { offsetInCU: 0x45FFA, offset: 0xD6562, size: 0x8, addend: 0x0, symName: __ZN10ClipperLib7Clipper18SwapPositionsInSELEPNS_5TEdgeES2_, symObjAddr: 0x90A0, symBinAddr: 0x18FC0, symSize: 0x150 }
  - { offsetInCU: 0x464E6, offset: 0xD6A4E, size: 0x8, addend: 0x0, symName: __ZNKSt3__16vectorIPN10ClipperLib13IntersectNodeENS_9allocatorIS3_EEE20__throw_length_errorB8ue170006Ev, symObjAddr: 0x14A40, symBinAddr: 0x24740, symSize: 0x10 }
  - { offsetInCU: 0x4650F, offset: 0xD6A77, size: 0x8, addend: 0x0, symName: __ZNSt3__111__introsortINS_17_ClassicAlgPolicyERPFbPN10ClipperLib13IntersectNodeES4_EPS4_Lb0EEEvT1_S9_T0_NS_15iterator_traitsIS9_E15difference_typeEb, symObjAddr: 0x14A50, symBinAddr: 0x24750, symSize: 0x990 }
  - { offsetInCU: 0x46923, offset: 0xD6E8B, size: 0x8, addend: 0x0, symName: __ZNKSt3__16vectorINS0_IN10ClipperLib8IntPointENS_9allocatorIS2_EEEENS3_IS5_EEE20__throw_length_errorB8ue170006Ev, symObjAddr: 0x12D80, symBinAddr: 0x22A80, symSize: 0x10 }
  - { offsetInCU: 0x4694C, offset: 0xD6EB4, size: 0x8, addend: 0x0, symName: __ZNKSt3__16vectorIPN10ClipperLib8PolyNodeENS_9allocatorIS3_EEE20__throw_length_errorB8ue170006Ev, symObjAddr: 0x12D90, symBinAddr: 0x22A90, symSize: 0x10 }
  - { offsetInCU: 0x46957, offset: 0xD6EBF, size: 0x8, addend: 0x0, symName: __ZN10ClipperLib7Clipper16FixupFirstLefts3EPNS_6OutRecES2_, symObjAddr: 0xB2A0, symBinAddr: 0x1B1C0, symSize: 0x60 }
  - { offsetInCU: 0x469D1, offset: 0xD6F39, size: 0x8, addend: 0x0, symName: __ZN10ClipperLib13ClipperOffsetC2Edd, symObjAddr: 0xB370, symBinAddr: 0x1B290, symSize: 0x70 }
  - { offsetInCU: 0x46D47, offset: 0xD72AF, size: 0x8, addend: 0x0, symName: __ZN10ClipperLib13ClipperOffsetC1Edd, symObjAddr: 0xB460, symBinAddr: 0x1B300, symSize: 0x70 }
  - { offsetInCU: 0x470E0, offset: 0xD7648, size: 0x8, addend: 0x0, symName: __ZN10ClipperLib13ClipperOffsetD2Ev, symObjAddr: 0xB4D0, symBinAddr: 0x1B370, symSize: 0x150 }
  - { offsetInCU: 0x47AC9, offset: 0xD8031, size: 0x8, addend: 0x0, symName: __ZN10ClipperLib13ClipperOffset5ClearEv, symObjAddr: 0xB620, symBinAddr: 0x1B4C0, symSize: 0x80 }
  - { offsetInCU: 0x47B88, offset: 0xD80F0, size: 0x8, addend: 0x0, symName: __ZN10ClipperLib8PolyNodeD1Ev, symObjAddr: 0xB6A0, symBinAddr: 0x1B540, symSize: 0x50 }
  - { offsetInCU: 0x47E44, offset: 0xD83AC, size: 0x8, addend: 0x0, symName: __ZN10ClipperLib13ClipperOffsetD1Ev, symObjAddr: 0xB6F0, symBinAddr: 0x1B590, symSize: 0x10 }
  - { offsetInCU: 0x47EAA, offset: 0xD8412, size: 0x8, addend: 0x0, symName: __ZN10ClipperLib13ClipperOffset7AddPathERKNSt3__16vectorINS_8IntPointENS1_9allocatorIS3_EEEENS_8JoinTypeENS_7EndTypeE, symObjAddr: 0xB700, symBinAddr: 0x1B5A0, symSize: 0x460 }
  - { offsetInCU: 0x48C2A, offset: 0xD9192, size: 0x8, addend: 0x0, symName: __ZN10ClipperLib13ClipperOffset8AddPathsERKNSt3__16vectorINS2_INS_8IntPointENS1_9allocatorIS3_EEEENS4_IS6_EEEENS_8JoinTypeENS_7EndTypeE, symObjAddr: 0xBB60, symBinAddr: 0x1BA00, symSize: 0x80 }
  - { offsetInCU: 0x48D61, offset: 0xD92C9, size: 0x8, addend: 0x0, symName: __ZN10ClipperLib13ClipperOffset15FixOrientationsEv, symObjAddr: 0xBBE0, symBinAddr: 0x1BA80, symSize: 0x350 }
  - { offsetInCU: 0x4976D, offset: 0xD9CD5, size: 0x8, addend: 0x0, symName: __ZN10ClipperLib13ClipperOffset7ExecuteERNSt3__16vectorINS2_INS_8IntPointENS1_9allocatorIS3_EEEENS4_IS6_EEEEd, symObjAddr: 0xBF80, symBinAddr: 0x1BE20, symSize: 0x610 }
  - { offsetInCU: 0x4B3A5, offset: 0xDB90D, size: 0x8, addend: 0x0, symName: __ZN10ClipperLib13ClipperOffset8DoOffsetEd, symObjAddr: 0xC590, symBinAddr: 0x1C430, symSize: 0x1B30 }
  - { offsetInCU: 0x51349, offset: 0xE18B1, size: 0x8, addend: 0x0, symName: __ZN10ClipperLib13ClipperOffset11OffsetPointEiRiNS_8JoinTypeE, symObjAddr: 0xE870, symBinAddr: 0x1E650, symSize: 0x7B0 }
  - { offsetInCU: 0x52B92, offset: 0xE30FA, size: 0x8, addend: 0x0, symName: __ZN10ClipperLib13ClipperOffset8DoSquareEii, symObjAddr: 0xF020, symBinAddr: 0x1EE00, symSize: 0x3E0 }
  - { offsetInCU: 0x53803, offset: 0xE3D6B, size: 0x8, addend: 0x0, symName: __ZN10ClipperLib13ClipperOffset7DoRoundEii, symObjAddr: 0xF400, symBinAddr: 0x1F1E0, symSize: 0x440 }
  - { offsetInCU: 0x54524, offset: 0xE4A8C, size: 0x8, addend: 0x0, symName: __ZNKSt3__16vectorIN10ClipperLib11DoublePointENS_9allocatorIS2_EEE20__throw_length_errorB8ue170006Ev, symObjAddr: 0x16010, symBinAddr: 0x25BC0, symSize: 0x10 }
  - { offsetInCU: 0x54558, offset: 0xE4AC0, size: 0x8, addend: 0x0, symName: __ZN10ClipperLib13ClipperOffset7ExecuteERNS_8PolyTreeEd, symObjAddr: 0xE180, symBinAddr: 0x1DF60, symSize: 0x6F0 }
  - { offsetInCU: 0x562A1, offset: 0xE6809, size: 0x8, addend: 0x0, symName: __ZN10ClipperLib13ClipperOffset7DoMiterEiid, symObjAddr: 0xF840, symBinAddr: 0x1F620, symSize: 0x1C0 }
  - { offsetInCU: 0x56CDF, offset: 0xE7247, size: 0x8, addend: 0x0, symName: __ZNSt3__16vectorINS0_IN10ClipperLib8IntPointENS_9allocatorIS2_EEEENS3_IS5_EEE8__appendEm, symObjAddr: 0x14800, symBinAddr: 0x24500, symSize: 0x230 }
  - { offsetInCU: 0x5758B, offset: 0xE7AF3, size: 0x8, addend: 0x0, symName: __ZN10ClipperLib7ClipperD0Ev, symObjAddr: 0x12750, symBinAddr: 0x22530, symSize: 0xD0 }
  - { offsetInCU: 0x57B63, offset: 0xE80CB, size: 0x8, addend: 0x0, symName: __ZTv0_n24_N10ClipperLib7ClipperD1Ev, symObjAddr: 0x12820, symBinAddr: 0x22600, symSize: 0xE0 }
  - { offsetInCU: 0x58123, offset: 0xE868B, size: 0x8, addend: 0x0, symName: __ZTv0_n24_N10ClipperLib7ClipperD0Ev, symObjAddr: 0x12900, symBinAddr: 0x226E0, symSize: 0x20 }
  - { offsetInCU: 0x58149, offset: 0xE86B1, size: 0x8, addend: 0x0, symName: __ZN10ClipperLib8PolyNodeD0Ev, symObjAddr: 0x12920, symBinAddr: 0x22700, symSize: 0x50 }
  - { offsetInCU: 0x5843E, offset: 0xE89A6, size: 0x8, addend: 0x0, symName: __ZN10ClipperLib16clipperExceptionD0Ev, symObjAddr: 0x12970, symBinAddr: 0x22750, symSize: 0x40 }
  - { offsetInCU: 0x58627, offset: 0xE8B8F, size: 0x8, addend: 0x0, symName: __ZNK10ClipperLib16clipperException4whatEv, symObjAddr: 0x129B0, symBinAddr: 0x22790, symSize: 0x20 }
  - { offsetInCU: 0x58837, offset: 0xE8D9F, size: 0x8, addend: 0x0, symName: __ZNSt3__114__split_bufferINS_6vectorIN10ClipperLib8IntPointENS_9allocatorIS3_EEEERNS4_IS6_EEED1Ev, symObjAddr: 0x12D20, symBinAddr: 0x22A20, symSize: 0x60 }
...
